
VGA_test.elf:     file format elf32-littlenios2
VGA_test.elf
architecture: nios2, flags 0x00000112:
EXEC_P, HAS_SYMS, D_PAGED
start address 0x00088140

Program Header:
    LOAD off    0x00001000 vaddr 0x00088000 paddr 0x00088000 align 2**12
         filesz 0x00000020 memsz 0x00000020 flags r-x
    LOAD off    0x00001020 vaddr 0x00088020 paddr 0x00088020 align 2**12
         filesz 0x000022b0 memsz 0x000022b0 flags r-x
    LOAD off    0x000032d0 vaddr 0x0008a2d0 paddr 0x0008a664 align 2**12
         filesz 0x00000394 memsz 0x00000394 flags rw-
    LOAD off    0x000039f8 vaddr 0x0008a9f8 paddr 0x0008a9f8 align 2**12
         filesz 0x00000000 memsz 0x00000124 flags rw-

Sections:
Idx Name          Size      VMA       LMA       File off  Algn
  0 .entry        00000020  00088000  00088000  00001000  2**5
                  CONTENTS, ALLOC, LOAD, READONLY, CODE
  1 .exceptions   00000120  00088020  00088020  00001020  2**2
                  CONTENTS, ALLOC, LOAD, READONLY, CODE
  2 .text         000020d8  00088140  00088140  00001140  2**2
                  CONTENTS, ALLOC, LOAD, READONLY, CODE
  3 .rodata       000000b8  0008a218  0008a218  00003218  2**2
                  CONTENTS, ALLOC, LOAD, READONLY, DATA
  4 .rwdata       00000394  0008a2d0  0008a664  000032d0  2**2
                  CONTENTS, ALLOC, LOAD, DATA, SMALL_DATA
  5 .bss          00000124  0008a9f8  0008a9f8  000039f8  2**2
                  ALLOC, SMALL_DATA
  6 .comment      00000026  00000000  00000000  00003664  2**0
                  CONTENTS, READONLY
  7 .debug_aranges 000001f0  00000000  00000000  00003690  2**3
                  CONTENTS, READONLY, DEBUGGING
  8 .debug_pubnames 00000276  00000000  00000000  00003880  2**0
                  CONTENTS, READONLY, DEBUGGING
  9 .debug_info   00002f13  00000000  00000000  00003af6  2**0
                  CONTENTS, READONLY, DEBUGGING
 10 .debug_abbrev 00000c0b  00000000  00000000  00006a09  2**0
                  CONTENTS, READONLY, DEBUGGING
 11 .debug_line   000021c3  00000000  00000000  00007614  2**0
                  CONTENTS, READONLY, DEBUGGING
 12 .debug_frame  00000248  00000000  00000000  000097d8  2**2
                  CONTENTS, READONLY, DEBUGGING
 13 .debug_str    00000a39  00000000  00000000  00009a20  2**0
                  CONTENTS, READONLY, DEBUGGING
 14 .debug_loc    0000079e  00000000  00000000  0000a459  2**0
                  CONTENTS, READONLY, DEBUGGING
 15 .debug_alt_sim_info 00000040  00000000  00000000  0000abf8  2**2
                  CONTENTS, READONLY, DEBUGGING
 16 .debug_ranges 00000090  00000000  00000000  0000ac38  2**3
                  CONTENTS, READONLY, DEBUGGING
 17 .thread_model 00000003  00000000  00000000  0000ca7f  2**0
                  CONTENTS, READONLY
 18 .cpu          00000003  00000000  00000000  0000ca82  2**0
                  CONTENTS, READONLY
 19 .qsys         00000001  00000000  00000000  0000ca85  2**0
                  CONTENTS, READONLY
 20 .simulation_enabled 00000001  00000000  00000000  0000ca86  2**0
                  CONTENTS, READONLY
 21 .sysid_hash   00000004  00000000  00000000  0000ca87  2**0
                  CONTENTS, READONLY
 22 .sysid_base   00000004  00000000  00000000  0000ca8b  2**0
                  CONTENTS, READONLY
 23 .sysid_time   00000004  00000000  00000000  0000ca8f  2**0
                  CONTENTS, READONLY
 24 .stderr_dev   00000009  00000000  00000000  0000ca93  2**0
                  CONTENTS, READONLY
 25 .stdin_dev    00000009  00000000  00000000  0000ca9c  2**0
                  CONTENTS, READONLY
 26 .stdout_dev   00000009  00000000  00000000  0000caa5  2**0
                  CONTENTS, READONLY
 27 .sopc_system_name 00000008  00000000  00000000  0000caae  2**0
                  CONTENTS, READONLY
 28 .sopcinfo     000739c0  00000000  00000000  0000cab6  2**0
                  CONTENTS, READONLY
SYMBOL TABLE:
00088000 l    d  .entry	00000000 .entry
00088020 l    d  .exceptions	00000000 .exceptions
00088140 l    d  .text	00000000 .text
0008a218 l    d  .rodata	00000000 .rodata
0008a2d0 l    d  .rwdata	00000000 .rwdata
0008a9f8 l    d  .bss	00000000 .bss
00000000 l    d  .comment	00000000 .comment
00000000 l    d  .debug_aranges	00000000 .debug_aranges
00000000 l    d  .debug_pubnames	00000000 .debug_pubnames
00000000 l    d  .debug_info	00000000 .debug_info
00000000 l    d  .debug_abbrev	00000000 .debug_abbrev
00000000 l    d  .debug_line	00000000 .debug_line
00000000 l    d  .debug_frame	00000000 .debug_frame
00000000 l    d  .debug_str	00000000 .debug_str
00000000 l    d  .debug_loc	00000000 .debug_loc
00000000 l    d  .debug_alt_sim_info	00000000 .debug_alt_sim_info
00000000 l    d  .debug_ranges	00000000 .debug_ranges
00088178 l       .text	00000000 alt_after_alt_main
00000000 l    df *ABS*	00000000 alt_irq_handler.c
00000000 l    df *ABS*	00000000 main.c
00000000 l    df *ABS*	00000000 puts.c
00000000 l    df *ABS*	00000000 strlen.c
00000000 l    df *ABS*	00000000 fvwrite_small_dev.c
00000000 l    df *ABS*	00000000 impure.c
0008a2d0 l     O .rwdata	000000e0 impure_data
00000000 l    df *ABS*	00000000 writer.c
00000000 l    df *ABS*	00000000 int_errno.c
00000000 l    df *ABS*	00000000 alt_load.c
00088514 l     F .text	00000020 alt_load_section
00000000 l    df *ABS*	00000000 alt_main.c
00000000 l    df *ABS*	00000000 alt_usleep.c
00000000 l    df *ABS*	00000000 alt_write.c
000885f4 l     F .text	00000020 alt_get_errno
00000000 l    df *ABS*	00000000 alt_sys_init.c
000886c8 l     F .text	0000000c alt_dev_reg
0008a3dc l     O .rwdata	00000048 VGA_Character_buffer
0008a3b0 l     O .rwdata	0000002c jtag_uart
0008a424 l     O .rwdata	00000054 VGA_Pixel_Buffer
00000000 l    df *ABS*	00000000 altera_avalon_jtag_uart_fd.c
00000000 l    df *ABS*	00000000 altera_avalon_jtag_uart_read.c
00000000 l    df *ABS*	00000000 altera_avalon_jtag_uart_write.c
00000000 l    df *ABS*	00000000 altera_avalon_timer_sc.c
00088950 l     F .text	0000003c alt_avalon_timer_sc_irq
00000000 l    df *ABS*	00000000 altera_up_avalon_video_character_buffer_with_dma.c
00000000 l    df *ABS*	00000000 altera_up_avalon_video_pixel_buffer_dma.c
00000000 l    df *ABS*	00000000 alt_busy_sleep.c
00000000 l    df *ABS*	00000000 alt_close.c
000896ac l     F .text	00000020 alt_get_errno
00000000 l    df *ABS*	00000000 alt_dcache_flush_all.c
00000000 l    df *ABS*	00000000 alt_dev.c
0008976c l     F .text	00000008 alt_dev_null_write
00000000 l    df *ABS*	00000000 alt_dev_llist_insert.c
00000000 l    df *ABS*	00000000 alt_errno.c
00000000 l    df *ABS*	00000000 alt_find_dev.c
00000000 l    df *ABS*	00000000 alt_icache_flush_all.c
00000000 l    df *ABS*	00000000 alt_iic.c
00000000 l    df *ABS*	00000000 alt_iic_isr_register.c
00000000 l    df *ABS*	00000000 alt_io_redirect.c
00089960 l     F .text	00000088 alt_open_fd
00000000 l    df *ABS*	00000000 alt_irq_vars.c
00000000 l    df *ABS*	00000000 alt_open.c
00000000 l    df *ABS*	00000000 alt_release_fd.c
00000000 l    df *ABS*	00000000 alt_tick.c
00000000 l    df *ABS*	00000000 altera_nios2_qsys_irq.c
00000000 l    df *ABS*	00000000 alt_find_file.c
00000000 l    df *ABS*	00000000 alt_get_fd.c
00000000 l    df *ABS*	00000000 exit.c
00000000 l    df *ABS*	00000000 memcmp.c
00000000 l    df *ABS*	00000000 strcmp.c
00000000 l    df *ABS*	00000000 __call_atexit.c
00089ebc l     F .text	00000004 register_fini
00000000 l    df *ABS*	00000000 lib2-divmod.c
0008a07c l     F .text	0000007c udivmodsi4
00000000 l    df *ABS*	00000000 lib2-mul.c
00000000 l    df *ABS*	00000000 alt_exit.c
0008a634 g     O .rwdata	00000004 end_sram
000885a0 g     F .text	00000050 alt_main
00088d50 g     F .text	000001e8 alt_up_pixel_buffer_dma_draw_vline
0008831c g     F .text	00000090 _puts_r
0008aa1c g     O .bss	00000100 alt_irq
0008a664 g       *ABS*	00000000 __flash_rwdata_start
0008898c g     F .text	00000058 alt_up_char_buffer_string
000889e4 g     F .text	00000058 alt_up_char_buffer_draw
000894fc g     F .text	000000e0 alt_up_pixel_buffer_dma_draw
00000000  w      *UND*	00000000 __errno
00089614 g     F .text	0000000c alt_up_pixel_buffer_dma_open_dev
00088000 g     F .entry	0000000c __reset
0008a9f8 g     O .bss	00000004 edge_capture
00088020 g       *ABS*	00000000 __flash_exceptions_start
0008aa00 g     O .bss	00000004 errno
0008aa08 g     O .bss	00000004 alt_argv
00092620 g       *ABS*	00000000 _gp
000885f0 g     F .text	00000004 usleep
000895ec g     F .text	00000028 alt_up_pixel_buffer_dma_change_back_buffer_address
0008a4a0 g     O .rwdata	00000180 alt_fd_list
000897e4 g     F .text	00000070 alt_find_dev
00088a3c g     F .text	00000024 alt_up_char_buffer_clear
000899e8 g     F .text	0000008c alt_io_redirect
000883ac g     F .text	00000014 puts
000895dc g     F .text	00000010 alt_up_pixel_buffer_dma_check_swap_buffers_status
0008886c g     F .text	00000060 altera_avalon_jtag_uart_read
0008a1b8 g     F .text	00000008 __udivsi3
00088f38 g     F .text	000001bc alt_up_pixel_buffer_dma_draw_hline
00088ab8 g     F .text	000000a8 helper_plot_pixel
0008a650 g     O .rwdata	00000004 alt_max_fd
0008942c g     F .text	000000ac alt_up_pixel_buffer_dma_clear_screen
0008a63c g     O .rwdata	00000004 _global_impure_ptr
0008ab1c g       *ABS*	00000000 __bss_end
000898f4 g     F .text	0000006c alt_iic_isr_register
000891c0 g     F .text	0000026c alt_up_pixel_buffer_dma_draw_box
00089c80 g     F .text	000000ac alt_tick
00089858 g     F .text	00000018 alt_ic_irq_enabled
00089c4c g     F .text	00000034 alt_alarm_stop
0008aa10 g     O .bss	00000004 alt_irq_active
00088000 g       *ABS*	00000000 __alt_mem_onchip_mem
000880ec g     F .exceptions	00000054 alt_irq_handler
0008a478 g     O .rwdata	00000028 alt_dev_null
0008a62c g     O .rwdata	00000004 character_buffer
00089768 g     F .text	00000004 alt_dcache_flush_all
000890f4 g     F .text	000000cc alt_up_pixel_buffer_dma_draw_rectangle
0008a664 g       *ABS*	00000000 __ram_rwdata_end
0008a648 g     O .rwdata	00000008 alt_dev_list
00088614 g     F .text	000000b4 write
00088b60 g     F .text	000001f0 alt_up_pixel_buffer_dma_draw_line
0008a2d0 g       *ABS*	00000000 __ram_rodata_end
0008a1c0 g     F .text	00000008 __umodsi3
0008ab1c g       *ABS*	00000000 end
00088a6c g     F .text	0000004c alt_up_char_buffer_init
0008d000 g       *ABS*	00000000 __alt_stack_pointer
00088900 g     F .text	00000050 alt_avalon_timer_sc_init
000888cc g     F .text	00000034 altera_avalon_jtag_uart_write
00089ec0 g     F .text	000001bc __call_exitprocs
00088140 g     F .text	0000003c _start
0008aa14 g     O .bss	00000004 _alt_tick_rate
0008aa18 g     O .bss	00000004 _alt_nticks
000886d4 g     F .text	00000158 alt_sys_init
0008a1c8 g     F .text	00000038 __mulsi3
0008a2d0 g       *ABS*	00000000 __ram_rwdata_start
0008a218 g       *ABS*	00000000 __ram_rodata_start
0008885c g     F .text	00000010 altera_avalon_jtag_uart_read_fd
00089dd0 g     F .text	0000005c alt_get_fd
00089620 g     F .text	0000008c alt_busy_sleep
00089e4c g     F .text	0000003c memcmp
0008ab1c g       *ABS*	00000000 __alt_stack_base
00089d34 g     F .text	0000009c alt_find_file
00089774 g     F .text	00000070 alt_dev_llist_insert
000883e0 g     F .text	000000bc __sfvwrite_small_dev
0008a9f8 g       *ABS*	00000000 __bss_start
000881f0 g     F .text	0000012c main
0008aa0c g     O .bss	00000004 alt_envp
000894d8 g     F .text	00000024 alt_up_pixel_buffer_dma_swap_buffers
00088a60 g     F .text	0000000c alt_up_char_buffer_open_dev
0008884c g     F .text	00000010 altera_avalon_jtag_uart_write_fd
0008a654 g     O .rwdata	00000004 alt_errno
0008a0f8 g     F .text	00000060 __divsi3
00089e88 g     F .text	00000034 strcmp
0008a218 g       *ABS*	00000000 __flash_rodata_start
0008882c g     F .text	00000020 alt_irq_init
00089bf0 g     F .text	0000005c alt_release_fd
0008849c g     F .text	00000078 _write_r
0008a638 g     O .rwdata	00000004 _impure_ptr
0008aa04 g     O .bss	00000004 alt_argc
0008a624 g     O .rwdata	00000004 ledG
00088020 g       .exceptions	00000000 alt_irq_entry
0008a640 g     O .rwdata	00000008 alt_fs_list
0008a9fc g     O .bss	00000004 pixel_buffer_dev
00088020 g       *ABS*	00000000 __ram_exceptions_start
000898f0 g     F .text	00000004 alt_ic_isr_register
0008a664 g       *ABS*	00000000 _edata
0008ab1c g       *ABS*	00000000 _end
00088140 g       *ABS*	00000000 __ram_exceptions_end
000898b0 g     F .text	00000040 alt_ic_irq_disable
0008a630 g     O .rwdata	00000004 end_front_buffer
00089d2c g     F .text	00000008 altera_nios2_qsys_irq_init
00089e2c g     F .text	00000020 exit
0008a158 g     F .text	00000060 __modsi3
0008d000 g       *ABS*	00000000 __alt_data_end
00088020 g     F .exceptions	00000000 alt_exception
0008a628 g     O .rwdata	00000004 keys
0008a200 g     F .text	00000014 _exit
000883c0 g     F .text	00000020 strlen
00089a74 g     F .text	0000017c open
00089854 g     F .text	00000004 alt_icache_flush_all
0008a658 g     O .rwdata	00000004 alt_priority_mask
00089870 g     F .text	00000040 alt_ic_irq_enable
0008a620 g     O .rwdata	00000004 ledR
0008a65c g     O .rwdata	00000008 alt_alarm_list
0008817c g     F .text	00000074 handle_button_interrupts
000896cc g     F .text	0000009c close
00088534 g     F .text	0000006c alt_load
00000000  w      *UND*	00000000 free



Disassembly of section .entry:

00088000 <__reset>:
   88000:	00400234 	movhi	at,8
   88004:	08605014 	ori	at,at,33088
   88008:	0800683a 	jmp	at
	...

Disassembly of section .exceptions:

00088020 <alt_exception>:
   88020:	deffed04 	addi	sp,sp,-76
   88024:	dfc00015 	stw	ra,0(sp)
   88028:	d8400215 	stw	at,8(sp)
   8802c:	d8800315 	stw	r2,12(sp)
   88030:	d8c00415 	stw	r3,16(sp)
   88034:	d9000515 	stw	r4,20(sp)
   88038:	d9400615 	stw	r5,24(sp)
   8803c:	d9800715 	stw	r6,28(sp)
   88040:	d9c00815 	stw	r7,32(sp)
   88044:	000b307a 	rdctl	r5,estatus
   88048:	da000915 	stw	r8,36(sp)
   8804c:	da400a15 	stw	r9,40(sp)
   88050:	da800b15 	stw	r10,44(sp)
   88054:	dac00c15 	stw	r11,48(sp)
   88058:	db000d15 	stw	r12,52(sp)
   8805c:	db400e15 	stw	r13,56(sp)
   88060:	db800f15 	stw	r14,60(sp)
   88064:	dbc01015 	stw	r15,64(sp)
   88068:	d9401115 	stw	r5,68(sp)
   8806c:	ebffff04 	addi	r15,ea,-4
   88070:	dbc01215 	stw	r15,72(sp)
   88074:	0009313a 	rdctl	r4,ipending
   88078:	2880004c 	andi	r2,r5,1
   8807c:	10000326 	beq	r2,zero,8808c <alt_exception+0x6c>
   88080:	20000226 	beq	r4,zero,8808c <alt_exception+0x6c>
   88084:	00880ec0 	call	880ec <alt_irq_handler>
   88088:	00000306 	br	88098 <alt_exception+0x78>
   8808c:	df401215 	stw	ea,72(sp)
   88090:	e8bfff17 	ldw	r2,-4(ea)
   88094:	003da03a 	break	0
   88098:	d9401117 	ldw	r5,68(sp)
   8809c:	df401217 	ldw	ea,72(sp)
   880a0:	dfc00017 	ldw	ra,0(sp)
   880a4:	2801707a 	wrctl	estatus,r5
   880a8:	d8400217 	ldw	at,8(sp)
   880ac:	d8800317 	ldw	r2,12(sp)
   880b0:	d8c00417 	ldw	r3,16(sp)
   880b4:	d9000517 	ldw	r4,20(sp)
   880b8:	d9400617 	ldw	r5,24(sp)
   880bc:	d9800717 	ldw	r6,28(sp)
   880c0:	d9c00817 	ldw	r7,32(sp)
   880c4:	da000917 	ldw	r8,36(sp)
   880c8:	da400a17 	ldw	r9,40(sp)
   880cc:	da800b17 	ldw	r10,44(sp)
   880d0:	dac00c17 	ldw	r11,48(sp)
   880d4:	db000d17 	ldw	r12,52(sp)
   880d8:	db400e17 	ldw	r13,56(sp)
   880dc:	db800f17 	ldw	r14,60(sp)
   880e0:	dbc01017 	ldw	r15,64(sp)
   880e4:	dec01304 	addi	sp,sp,76
   880e8:	ef80083a 	eret

000880ec <alt_irq_handler>:
   880ec:	deffff04 	addi	sp,sp,-4
   880f0:	dfc00015 	stw	ra,0(sp)
   880f4:	0009313a 	rdctl	r4,ipending
   880f8:	00c00044 	movi	r3,1
   880fc:	01400274 	movhi	r5,9
   88100:	296a8704 	addi	r5,r5,-21988
   88104:	20c4703a 	and	r2,r4,r3
   88108:	18c7883a 	add	r3,r3,r3
   8810c:	10000726 	beq	r2,zero,8812c <alt_irq_handler+0x40>
   88110:	29000117 	ldw	r4,4(r5)
   88114:	28800017 	ldw	r2,0(r5)
   88118:	103ee83a 	callr	r2
   8811c:	0005313a 	rdctl	r2,ipending
   88120:	10000426 	beq	r2,zero,88134 <alt_irq_handler+0x48>
   88124:	1009883a 	mov	r4,r2
   88128:	003ff306 	br	880f8 <alt_irq_handler+0xc>
   8812c:	29400204 	addi	r5,r5,8
   88130:	003ff406 	br	88104 <alt_irq_handler+0x18>
   88134:	dfc00017 	ldw	ra,0(sp)
   88138:	dec00104 	addi	sp,sp,4
   8813c:	f800283a 	ret

Disassembly of section .text:

00088140 <_start>:
   88140:	06c00234 	movhi	sp,8
   88144:	def40014 	ori	sp,sp,53248
   88148:	06800274 	movhi	gp,9
   8814c:	d6898814 	ori	gp,gp,9760
   88150:	00800234 	movhi	r2,8
   88154:	10aa7e14 	ori	r2,r2,43512
   88158:	00c00234 	movhi	r3,8
   8815c:	18eac714 	ori	r3,r3,43804
   88160:	10c00326 	beq	r2,r3,88170 <_start+0x30>
   88164:	10000015 	stw	zero,0(r2)
   88168:	10800104 	addi	r2,r2,4
   8816c:	10fffd36 	bltu	r2,r3,88164 <_start+0x24>
   88170:	00885340 	call	88534 <alt_load>
   88174:	00885a00 	call	885a0 <alt_main>

00088178 <alt_after_alt_main>:
   88178:	003fff06 	br	88178 <alt_after_alt_main>

0008817c <handle_button_interrupts>:
   8817c:	defffd04 	addi	sp,sp,-12
   88180:	df000215 	stw	fp,8(sp)
   88184:	df000204 	addi	fp,sp,8
   88188:	e13fff15 	stw	r4,-4(fp)
   8818c:	e0bfff17 	ldw	r2,-4(fp)
   88190:	e0bffe15 	stw	r2,-8(fp)
   88194:	00800274 	movhi	r2,9
   88198:	108c0b04 	addi	r2,r2,12332
   8819c:	10c00037 	ldwio	r3,0(r2)
   881a0:	e0bffe17 	ldw	r2,-8(fp)
   881a4:	10c00015 	stw	r3,0(r2)
   881a8:	00800274 	movhi	r2,9
   881ac:	108c0b04 	addi	r2,r2,12332
   881b0:	10000035 	stwio	zero,0(r2)
   881b4:	00800274 	movhi	r2,9
   881b8:	108c0b04 	addi	r2,r2,12332
   881bc:	10800037 	ldwio	r2,0(r2)
   881c0:	d0e00117 	ldw	r3,-32764(gp)
   881c4:	d0a00217 	ldw	r2,-32760(gp)
   881c8:	10800017 	ldw	r2,0(r2)
   881cc:	18800015 	stw	r2,0(r3)
   881d0:	d0e00017 	ldw	r3,-32768(gp)
   881d4:	e0bffe17 	ldw	r2,-8(fp)
   881d8:	10800017 	ldw	r2,0(r2)
   881dc:	18800015 	stw	r2,0(r3)
   881e0:	e037883a 	mov	sp,fp
   881e4:	df000017 	ldw	fp,0(sp)
   881e8:	dec00104 	addi	sp,sp,4
   881ec:	f800283a 	ret

000881f0 <main>:
   881f0:	defff504 	addi	sp,sp,-44
   881f4:	dfc00a15 	stw	ra,40(sp)
   881f8:	df000915 	stw	fp,36(sp)
   881fc:	df000904 	addi	fp,sp,36
   88200:	00c00274 	movhi	r3,9
   88204:	18cc0a04 	addi	r3,r3,12328
   88208:	008003c4 	movi	r2,15
   8820c:	18800035 	stwio	r2,0(r3)
   88210:	00800274 	movhi	r2,9
   88214:	108c0b04 	addi	r2,r2,12332
   88218:	10000035 	stwio	zero,0(r2)
   8821c:	00be0014 	movui	r2,63488
   88220:	e0bffc15 	stw	r2,-16(fp)
   88224:	0081f804 	movi	r2,2016
   88228:	e0bffd15 	stw	r2,-12(fp)
   8822c:	008007c4 	movi	r2,31
   88230:	e0bffe15 	stw	r2,-8(fp)
   88234:	e03ffb15 	stw	zero,-20(fp)
   88238:	00800044 	movi	r2,1
   8823c:	e0bffa15 	stw	r2,-24(fp)
   88240:	01000274 	movhi	r4,9
   88244:	21288604 	addi	r4,r4,-24040
   88248:	00896140 	call	89614 <alt_up_pixel_buffer_dma_open_dev>
   8824c:	d0a0f715 	stw	r2,-31780(gp)
   88250:	e0bffb17 	ldw	r2,-20(fp)
   88254:	108000d0 	cmplti	r2,r2,3
   88258:	1000011e 	bne	r2,zero,88260 <main+0x70>
   8825c:	e03ffb15 	stw	zero,-20(fp)
   88260:	d120f717 	ldw	r4,-31780(gp)
   88264:	e17ffa17 	ldw	r5,-24(fp)
   88268:	008942c0 	call	8942c <alt_up_pixel_buffer_dma_clear_screen>
   8826c:	d120f717 	ldw	r4,-31780(gp)
   88270:	e0bffb17 	ldw	r2,-20(fp)
   88274:	1085883a 	add	r2,r2,r2
   88278:	1085883a 	add	r2,r2,r2
   8827c:	e0fffa04 	addi	r3,fp,-24
   88280:	10c5883a 	add	r2,r2,r3
   88284:	10800204 	addi	r2,r2,8
   88288:	10c00017 	ldw	r3,0(r2)
   8828c:	e0bffb17 	ldw	r2,-20(fp)
   88290:	10800044 	addi	r2,r2,1
   88294:	e0bffb15 	stw	r2,-20(fp)
   88298:	00803bc4 	movi	r2,239
   8829c:	d8800015 	stw	r2,0(sp)
   882a0:	d8c00115 	stw	r3,4(sp)
   882a4:	e0bffa17 	ldw	r2,-24(fp)
   882a8:	d8800215 	stw	r2,8(sp)
   882ac:	000b883a 	mov	r5,zero
   882b0:	000d883a 	mov	r6,zero
   882b4:	01c04fc4 	movi	r7,319
   882b8:	00891c00 	call	891c0 <alt_up_pixel_buffer_dma_draw_box>
   882bc:	d120f717 	ldw	r4,-31780(gp)
   882c0:	00894d80 	call	894d8 <alt_up_pixel_buffer_dma_swap_buffers>
   882c4:	1005003a 	cmpeq	r2,r2,zero
   882c8:	1000061e 	bne	r2,zero,882e4 <main+0xf4>
   882cc:	01000274 	movhi	r4,9
   882d0:	21288c04 	addi	r4,r4,-24016
   882d4:	00883ac0 	call	883ac <puts>
   882d8:	00bfffc4 	movi	r2,-1
   882dc:	e0bfff15 	stw	r2,-4(fp)
   882e0:	00000806 	br	88304 <main+0x114>
   882e4:	d120f717 	ldw	r4,-31780(gp)
   882e8:	00895dc0 	call	895dc <alt_up_pixel_buffer_dma_check_swap_buffers_status>
   882ec:	1004c03a 	cmpne	r2,r2,zero
   882f0:	103ffc1e 	bne	r2,zero,882e4 <main+0xf4>
   882f4:	010003f4 	movhi	r4,15
   882f8:	21109004 	addi	r4,r4,16960
   882fc:	00885f00 	call	885f0 <usleep>
   88300:	003fd306 	br	88250 <main+0x60>
   88304:	e0bfff17 	ldw	r2,-4(fp)
   88308:	e037883a 	mov	sp,fp
   8830c:	dfc00117 	ldw	ra,4(sp)
   88310:	df000017 	ldw	fp,0(sp)
   88314:	dec00204 	addi	sp,sp,8
   88318:	f800283a 	ret

0008831c <_puts_r>:
   8831c:	defffd04 	addi	sp,sp,-12
   88320:	dc000015 	stw	r16,0(sp)
   88324:	2021883a 	mov	r16,r4
   88328:	2809883a 	mov	r4,r5
   8832c:	dfc00215 	stw	ra,8(sp)
   88330:	dc400115 	stw	r17,4(sp)
   88334:	2823883a 	mov	r17,r5
   88338:	00883c00 	call	883c0 <strlen>
   8833c:	80c00217 	ldw	r3,8(r16)
   88340:	02000274 	movhi	r8,9
   88344:	4220f804 	addi	r8,r8,-31776
   88348:	880d883a 	mov	r6,r17
   8834c:	100f883a 	mov	r7,r2
   88350:	8009883a 	mov	r4,r16
   88354:	180b883a 	mov	r5,r3
   88358:	1a000115 	stw	r8,4(r3)
   8835c:	403ee83a 	callr	r8
   88360:	047fffc4 	movi	r17,-1
   88364:	8009883a 	mov	r4,r16
   88368:	01800274 	movhi	r6,9
   8836c:	31a89204 	addi	r6,r6,-23992
   88370:	01c00044 	movi	r7,1
   88374:	1440071e 	bne	r2,r17,88394 <_puts_r+0x78>
   88378:	00ffffc4 	movi	r3,-1
   8837c:	1805883a 	mov	r2,r3
   88380:	dfc00217 	ldw	ra,8(sp)
   88384:	dc400117 	ldw	r17,4(sp)
   88388:	dc000017 	ldw	r16,0(sp)
   8838c:	dec00304 	addi	sp,sp,12
   88390:	f800283a 	ret
   88394:	81400217 	ldw	r5,8(r16)
   88398:	28c00117 	ldw	r3,4(r5)
   8839c:	183ee83a 	callr	r3
   883a0:	0007883a 	mov	r3,zero
   883a4:	147ff51e 	bne	r2,r17,8837c <_puts_r+0x60>
   883a8:	003ff306 	br	88378 <_puts_r+0x5c>

000883ac <puts>:
   883ac:	00800274 	movhi	r2,9
   883b0:	10a98e04 	addi	r2,r2,-22984
   883b4:	200b883a 	mov	r5,r4
   883b8:	11000017 	ldw	r4,0(r2)
   883bc:	008831c1 	jmpi	8831c <_puts_r>

000883c0 <strlen>:
   883c0:	20800007 	ldb	r2,0(r4)
   883c4:	10000526 	beq	r2,zero,883dc <strlen+0x1c>
   883c8:	2007883a 	mov	r3,r4
   883cc:	18c00044 	addi	r3,r3,1
   883d0:	18800007 	ldb	r2,0(r3)
   883d4:	103ffd1e 	bne	r2,zero,883cc <strlen+0xc>
   883d8:	1905c83a 	sub	r2,r3,r4
   883dc:	f800283a 	ret

000883e0 <__sfvwrite_small_dev>:
   883e0:	2880000b 	ldhu	r2,0(r5)
   883e4:	defffa04 	addi	sp,sp,-24
   883e8:	dcc00315 	stw	r19,12(sp)
   883ec:	1080020c 	andi	r2,r2,8
   883f0:	dc800215 	stw	r18,8(sp)
   883f4:	dc400115 	stw	r17,4(sp)
   883f8:	dfc00515 	stw	ra,20(sp)
   883fc:	dd000415 	stw	r20,16(sp)
   88400:	dc000015 	stw	r16,0(sp)
   88404:	2825883a 	mov	r18,r5
   88408:	2027883a 	mov	r19,r4
   8840c:	3023883a 	mov	r17,r6
   88410:	10002026 	beq	r2,zero,88494 <__sfvwrite_small_dev+0xb4>
   88414:	2940008f 	ldh	r5,2(r5)
   88418:	28000f16 	blt	r5,zero,88458 <__sfvwrite_small_dev+0x78>
   8841c:	01c01b0e 	bge	zero,r7,8848c <__sfvwrite_small_dev+0xac>
   88420:	3821883a 	mov	r16,r7
   88424:	05010004 	movi	r20,1024
   88428:	00000206 	br	88434 <__sfvwrite_small_dev+0x54>
   8842c:	0400170e 	bge	zero,r16,8848c <__sfvwrite_small_dev+0xac>
   88430:	9140008f 	ldh	r5,2(r18)
   88434:	880d883a 	mov	r6,r17
   88438:	9809883a 	mov	r4,r19
   8843c:	800f883a 	mov	r7,r16
   88440:	a400010e 	bge	r20,r16,88448 <__sfvwrite_small_dev+0x68>
   88444:	01c10004 	movi	r7,1024
   88448:	008849c0 	call	8849c <_write_r>
   8844c:	88a3883a 	add	r17,r17,r2
   88450:	80a1c83a 	sub	r16,r16,r2
   88454:	00bff516 	blt	zero,r2,8842c <__sfvwrite_small_dev+0x4c>
   88458:	9080000b 	ldhu	r2,0(r18)
   8845c:	00ffffc4 	movi	r3,-1
   88460:	10801014 	ori	r2,r2,64
   88464:	9080000d 	sth	r2,0(r18)
   88468:	1805883a 	mov	r2,r3
   8846c:	dfc00517 	ldw	ra,20(sp)
   88470:	dd000417 	ldw	r20,16(sp)
   88474:	dcc00317 	ldw	r19,12(sp)
   88478:	dc800217 	ldw	r18,8(sp)
   8847c:	dc400117 	ldw	r17,4(sp)
   88480:	dc000017 	ldw	r16,0(sp)
   88484:	dec00604 	addi	sp,sp,24
   88488:	f800283a 	ret
   8848c:	0007883a 	mov	r3,zero
   88490:	003ff506 	br	88468 <__sfvwrite_small_dev+0x88>
   88494:	00ffffc4 	movi	r3,-1
   88498:	003ff306 	br	88468 <__sfvwrite_small_dev+0x88>

0008849c <_write_r>:
   8849c:	defffd04 	addi	sp,sp,-12
   884a0:	dc000015 	stw	r16,0(sp)
   884a4:	04000274 	movhi	r16,9
   884a8:	842a8004 	addi	r16,r16,-22016
   884ac:	dc400115 	stw	r17,4(sp)
   884b0:	80000015 	stw	zero,0(r16)
   884b4:	2023883a 	mov	r17,r4
   884b8:	2809883a 	mov	r4,r5
   884bc:	300b883a 	mov	r5,r6
   884c0:	380d883a 	mov	r6,r7
   884c4:	dfc00215 	stw	ra,8(sp)
   884c8:	00886140 	call	88614 <write>
   884cc:	1007883a 	mov	r3,r2
   884d0:	00bfffc4 	movi	r2,-1
   884d4:	18800626 	beq	r3,r2,884f0 <_write_r+0x54>
   884d8:	1805883a 	mov	r2,r3
   884dc:	dfc00217 	ldw	ra,8(sp)
   884e0:	dc400117 	ldw	r17,4(sp)
   884e4:	dc000017 	ldw	r16,0(sp)
   884e8:	dec00304 	addi	sp,sp,12
   884ec:	f800283a 	ret
   884f0:	80800017 	ldw	r2,0(r16)
   884f4:	103ff826 	beq	r2,zero,884d8 <_write_r+0x3c>
   884f8:	88800015 	stw	r2,0(r17)
   884fc:	1805883a 	mov	r2,r3
   88500:	dfc00217 	ldw	ra,8(sp)
   88504:	dc400117 	ldw	r17,4(sp)
   88508:	dc000017 	ldw	r16,0(sp)
   8850c:	dec00304 	addi	sp,sp,12
   88510:	f800283a 	ret

00088514 <alt_load_section>:
   88514:	2900051e 	bne	r5,r4,8852c <alt_load_section+0x18>
   88518:	f800283a 	ret
   8851c:	20800017 	ldw	r2,0(r4)
   88520:	21000104 	addi	r4,r4,4
   88524:	28800015 	stw	r2,0(r5)
   88528:	29400104 	addi	r5,r5,4
   8852c:	29bffb1e 	bne	r5,r6,8851c <alt_load_section+0x8>
   88530:	f800283a 	ret

00088534 <alt_load>:
   88534:	deffff04 	addi	sp,sp,-4
   88538:	01000274 	movhi	r4,9
   8853c:	21299904 	addi	r4,r4,-22940
   88540:	01400274 	movhi	r5,9
   88544:	2968b404 	addi	r5,r5,-23856
   88548:	01800274 	movhi	r6,9
   8854c:	31a99904 	addi	r6,r6,-22940
   88550:	dfc00015 	stw	ra,0(sp)
   88554:	00885140 	call	88514 <alt_load_section>
   88558:	01000274 	movhi	r4,9
   8855c:	21200804 	addi	r4,r4,-32736
   88560:	01400274 	movhi	r5,9
   88564:	29600804 	addi	r5,r5,-32736
   88568:	01800274 	movhi	r6,9
   8856c:	31a05004 	addi	r6,r6,-32448
   88570:	00885140 	call	88514 <alt_load_section>
   88574:	01000274 	movhi	r4,9
   88578:	21288604 	addi	r4,r4,-24040
   8857c:	01400274 	movhi	r5,9
   88580:	29688604 	addi	r5,r5,-24040
   88584:	01800274 	movhi	r6,9
   88588:	31a8b404 	addi	r6,r6,-23856
   8858c:	00885140 	call	88514 <alt_load_section>
   88590:	00897680 	call	89768 <alt_dcache_flush_all>
   88594:	dfc00017 	ldw	ra,0(sp)
   88598:	dec00104 	addi	sp,sp,4
   8859c:	00898541 	jmpi	89854 <alt_icache_flush_all>

000885a0 <alt_main>:
   885a0:	defffe04 	addi	sp,sp,-8
   885a4:	0009883a 	mov	r4,zero
   885a8:	dfc00115 	stw	ra,4(sp)
   885ac:	dc000015 	stw	r16,0(sp)
   885b0:	008882c0 	call	8882c <alt_irq_init>
   885b4:	00886d40 	call	886d4 <alt_sys_init>
   885b8:	01000274 	movhi	r4,9
   885bc:	21289304 	addi	r4,r4,-23988
   885c0:	200b883a 	mov	r5,r4
   885c4:	200d883a 	mov	r6,r4
   885c8:	00899e80 	call	899e8 <alt_io_redirect>
   885cc:	d120f917 	ldw	r4,-31772(gp)
   885d0:	d160fa17 	ldw	r5,-31768(gp)
   885d4:	d1a0fb17 	ldw	r6,-31764(gp)
   885d8:	00881f00 	call	881f0 <main>
   885dc:	1021883a 	mov	r16,r2
   885e0:	01000044 	movi	r4,1
   885e4:	00896cc0 	call	896cc <close>
   885e8:	8009883a 	mov	r4,r16
   885ec:	0089e2c0 	call	89e2c <exit>

000885f0 <usleep>:
   885f0:	00896201 	jmpi	89620 <alt_busy_sleep>

000885f4 <alt_get_errno>:
   885f4:	00800274 	movhi	r2,9
   885f8:	10a99504 	addi	r2,r2,-22956
   885fc:	10c00017 	ldw	r3,0(r2)
   88600:	00800274 	movhi	r2,9
   88604:	10aa8004 	addi	r2,r2,-22016
   88608:	18000126 	beq	r3,zero,88610 <alt_get_errno+0x1c>
   8860c:	1800683a 	jmp	r3
   88610:	f800283a 	ret

00088614 <write>:
   88614:	defffc04 	addi	sp,sp,-16
   88618:	dc800215 	stw	r18,8(sp)
   8861c:	dc400115 	stw	r17,4(sp)
   88620:	dfc00315 	stw	ra,12(sp)
   88624:	2823883a 	mov	r17,r5
   88628:	dc000015 	stw	r16,0(sp)
   8862c:	3025883a 	mov	r18,r6
   88630:	01400304 	movi	r5,12
   88634:	20001916 	blt	r4,zero,8869c <write+0x88>
   88638:	008a1c80 	call	8a1c8 <__mulsi3>
   8863c:	00c00274 	movhi	r3,9
   88640:	18e92804 	addi	r3,r3,-23392
   88644:	10c9883a 	add	r4,r2,r3
   88648:	20001426 	beq	r4,zero,8869c <write+0x88>
   8864c:	20800217 	ldw	r2,8(r4)
   88650:	043fffc4 	movi	r16,-1
   88654:	108000cc 	andi	r2,r2,3
   88658:	10000c26 	beq	r2,zero,8868c <write+0x78>
   8865c:	20800017 	ldw	r2,0(r4)
   88660:	880b883a 	mov	r5,r17
   88664:	900d883a 	mov	r6,r18
   88668:	10800617 	ldw	r2,24(r2)
   8866c:	10000726 	beq	r2,zero,8868c <write+0x78>
   88670:	103ee83a 	callr	r2
   88674:	1021883a 	mov	r16,r2
   88678:	10000c0e 	bge	r2,zero,886ac <write+0x98>
   8867c:	00885f40 	call	885f4 <alt_get_errno>
   88680:	0407c83a 	sub	r3,zero,r16
   88684:	043fffc4 	movi	r16,-1
   88688:	00000206 	br	88694 <write+0x80>
   8868c:	00885f40 	call	885f4 <alt_get_errno>
   88690:	00c00344 	movi	r3,13
   88694:	10c00015 	stw	r3,0(r2)
   88698:	00000406 	br	886ac <write+0x98>
   8869c:	00885f40 	call	885f4 <alt_get_errno>
   886a0:	00c01444 	movi	r3,81
   886a4:	10c00015 	stw	r3,0(r2)
   886a8:	043fffc4 	movi	r16,-1
   886ac:	8005883a 	mov	r2,r16
   886b0:	dfc00317 	ldw	ra,12(sp)
   886b4:	dc800217 	ldw	r18,8(sp)
   886b8:	dc400117 	ldw	r17,4(sp)
   886bc:	dc000017 	ldw	r16,0(sp)
   886c0:	dec00404 	addi	sp,sp,16
   886c4:	f800283a 	ret

000886c8 <alt_dev_reg>:
   886c8:	01400274 	movhi	r5,9
   886cc:	29699204 	addi	r5,r5,-22968
   886d0:	00897741 	jmpi	89774 <alt_dev_llist_insert>

000886d4 <alt_sys_init>:
   886d4:	defffd04 	addi	sp,sp,-12
   886d8:	dc400115 	stw	r17,4(sp)
   886dc:	04400044 	movi	r17,1
   886e0:	000b883a 	mov	r5,zero
   886e4:	880d883a 	mov	r6,r17
   886e8:	01c0fa04 	movi	r7,1000
   886ec:	01000274 	movhi	r4,9
   886f0:	210c0004 	addi	r4,r4,12288
   886f4:	dfc00215 	stw	ra,8(sp)
   886f8:	dc000015 	stw	r16,0(sp)
   886fc:	00889000 	call	88900 <alt_avalon_timer_sc_init>
   88700:	04000274 	movhi	r16,9
   88704:	8428f704 	addi	r16,r16,-23588
   88708:	01000274 	movhi	r4,9
   8870c:	2128ec04 	addi	r4,r4,-23632
   88710:	00886c80 	call	886c8 <alt_dev_reg>
   88714:	80800a17 	ldw	r2,40(r16)
   88718:	00c01004 	movi	r3,64
   8871c:	8009883a 	mov	r4,r16
   88720:	10800117 	ldw	r2,4(r2)
   88724:	100ad43a 	srli	r5,r2,16
   88728:	10bfffcc 	andi	r2,r2,65535
   8872c:	80800c15 	stw	r2,48(r16)
   88730:	81400d15 	stw	r5,52(r16)
   88734:	18800436 	bltu	r3,r2,88748 <alt_sys_init+0x74>
   88738:	00800fc4 	movi	r2,63
   8873c:	80800f15 	stw	r2,60(r16)
   88740:	00800184 	movi	r2,6
   88744:	80801015 	stw	r2,64(r16)
   88748:	00800804 	movi	r2,32
   8874c:	11400236 	bltu	r2,r5,88758 <alt_sys_init+0x84>
   88750:	008007c4 	movi	r2,31
   88754:	80801115 	stw	r2,68(r16)
   88758:	0088a6c0 	call	88a6c <alt_up_char_buffer_init>
   8875c:	8009883a 	mov	r4,r16
   88760:	00886c80 	call	886c8 <alt_dev_reg>
   88764:	01000274 	movhi	r4,9
   88768:	21290904 	addi	r4,r4,-23516
   8876c:	20c00a17 	ldw	r3,40(r4)
   88770:	01400084 	movi	r5,2
   88774:	18800017 	ldw	r2,0(r3)
   88778:	20800b15 	stw	r2,44(r4)
   8877c:	18800117 	ldw	r2,4(r3)
   88780:	20800c15 	stw	r2,48(r4)
   88784:	1880020b 	ldhu	r2,8(r3)
   88788:	20800f15 	stw	r2,60(r4)
   8878c:	1880028b 	ldhu	r2,10(r3)
   88790:	20801015 	stw	r2,64(r4)
   88794:	18800317 	ldw	r2,12(r3)
   88798:	1005d07a 	srai	r2,r2,1
   8879c:	1080004c 	andi	r2,r2,1
   887a0:	20800d15 	stw	r2,52(r4)
   887a4:	18800317 	ldw	r2,12(r3)
   887a8:	1005d13a 	srai	r2,r2,4
   887ac:	108003cc 	andi	r2,r2,15
   887b0:	20800e15 	stw	r2,56(r4)
   887b4:	19800317 	ldw	r6,12(r3)
   887b8:	300ed43a 	srli	r7,r6,16
   887bc:	1440021e 	bne	r2,r17,887c8 <alt_sys_init+0xf4>
   887c0:	20001115 	stw	zero,68(r4)
   887c4:	00000406 	br	887d8 <alt_sys_init+0x104>
   887c8:	1140021e 	bne	r2,r5,887d4 <alt_sys_init+0x100>
   887cc:	24401115 	stw	r17,68(r4)
   887d0:	00000106 	br	887d8 <alt_sys_init+0x104>
   887d4:	21401115 	stw	r5,68(r4)
   887d8:	300cd63a 	srli	r6,r6,24
   887dc:	01400274 	movhi	r5,9
   887e0:	29690904 	addi	r5,r5,-23516
   887e4:	39c03fcc 	andi	r7,r7,255
   887e8:	00800804 	movi	r2,32
   887ec:	29001117 	ldw	r4,68(r5)
   887f0:	00ffffc4 	movi	r3,-1
   887f4:	118dc83a 	sub	r6,r2,r6
   887f8:	11c5c83a 	sub	r2,r2,r7
   887fc:	198cd83a 	srl	r6,r3,r6
   88800:	1886d83a 	srl	r3,r3,r2
   88804:	390f883a 	add	r7,r7,r4
   88808:	2809883a 	mov	r4,r5
   8880c:	28c01215 	stw	r3,72(r5)
   88810:	29c01315 	stw	r7,76(r5)
   88814:	29801415 	stw	r6,80(r5)
   88818:	dfc00217 	ldw	ra,8(sp)
   8881c:	dc400117 	ldw	r17,4(sp)
   88820:	dc000017 	ldw	r16,0(sp)
   88824:	dec00304 	addi	sp,sp,12
   88828:	00886c81 	jmpi	886c8 <alt_dev_reg>

0008882c <alt_irq_init>:
   8882c:	deffff04 	addi	sp,sp,-4
   88830:	dfc00015 	stw	ra,0(sp)
   88834:	0089d2c0 	call	89d2c <altera_nios2_qsys_irq_init>
   88838:	00800044 	movi	r2,1
   8883c:	1001703a 	wrctl	status,r2
   88840:	dfc00017 	ldw	ra,0(sp)
   88844:	dec00104 	addi	sp,sp,4
   88848:	f800283a 	ret

0008884c <altera_avalon_jtag_uart_write_fd>:
   8884c:	20800017 	ldw	r2,0(r4)
   88850:	21c00217 	ldw	r7,8(r4)
   88854:	11000a04 	addi	r4,r2,40
   88858:	00888cc1 	jmpi	888cc <altera_avalon_jtag_uart_write>

0008885c <altera_avalon_jtag_uart_read_fd>:
   8885c:	20800017 	ldw	r2,0(r4)
   88860:	21c00217 	ldw	r7,8(r4)
   88864:	11000a04 	addi	r4,r2,40
   88868:	008886c1 	jmpi	8886c <altera_avalon_jtag_uart_read>

0008886c <altera_avalon_jtag_uart_read>:
   8886c:	21000017 	ldw	r4,0(r4)
   88870:	3890000c 	andi	r2,r7,16384
   88874:	2993883a 	add	r9,r5,r6
   88878:	1010c03a 	cmpne	r8,r2,zero
   8887c:	2807883a 	mov	r3,r5
   88880:	00000806 	br	888a4 <altera_avalon_jtag_uart_read+0x38>
   88884:	21800037 	ldwio	r6,0(r4)
   88888:	30a0000c 	andi	r2,r6,32768
   8888c:	10000326 	beq	r2,zero,8889c <altera_avalon_jtag_uart_read+0x30>
   88890:	19800005 	stb	r6,0(r3)
   88894:	18c00044 	addi	r3,r3,1
   88898:	00000206 	br	888a4 <altera_avalon_jtag_uart_read+0x38>
   8889c:	1940031e 	bne	r3,r5,888ac <altera_avalon_jtag_uart_read+0x40>
   888a0:	4000081e 	bne	r8,zero,888c4 <altera_avalon_jtag_uart_read+0x58>
   888a4:	1a7ff736 	bltu	r3,r9,88884 <altera_avalon_jtag_uart_read+0x18>
   888a8:	19400226 	beq	r3,r5,888b4 <altera_avalon_jtag_uart_read+0x48>
   888ac:	1945c83a 	sub	r2,r3,r5
   888b0:	f800283a 	ret
   888b4:	3890000c 	andi	r2,r7,16384
   888b8:	1000021e 	bne	r2,zero,888c4 <altera_avalon_jtag_uart_read+0x58>
   888bc:	00bffec4 	movi	r2,-5
   888c0:	f800283a 	ret
   888c4:	00bffd44 	movi	r2,-11
   888c8:	f800283a 	ret

000888cc <altera_avalon_jtag_uart_write>:
   888cc:	21000017 	ldw	r4,0(r4)
   888d0:	298f883a 	add	r7,r5,r6
   888d4:	20c00104 	addi	r3,r4,4
   888d8:	00000606 	br	888f4 <altera_avalon_jtag_uart_write+0x28>
   888dc:	18800037 	ldwio	r2,0(r3)
   888e0:	10bfffec 	andhi	r2,r2,65535
   888e4:	10000326 	beq	r2,zero,888f4 <altera_avalon_jtag_uart_write+0x28>
   888e8:	28800007 	ldb	r2,0(r5)
   888ec:	29400044 	addi	r5,r5,1
   888f0:	20800035 	stwio	r2,0(r4)
   888f4:	29fff936 	bltu	r5,r7,888dc <altera_avalon_jtag_uart_write+0x10>
   888f8:	3005883a 	mov	r2,r6
   888fc:	f800283a 	ret

00088900 <alt_avalon_timer_sc_init>:
   88900:	02000274 	movhi	r8,9
   88904:	422a8504 	addi	r8,r8,-21996
   88908:	40800017 	ldw	r2,0(r8)
   8890c:	defffe04 	addi	sp,sp,-8
   88910:	3807883a 	mov	r3,r7
   88914:	dfc00115 	stw	ra,4(sp)
   88918:	200f883a 	mov	r7,r4
   8891c:	1000011e 	bne	r2,zero,88924 <alt_avalon_timer_sc_init+0x24>
   88920:	40c00015 	stw	r3,0(r8)
   88924:	008001c4 	movi	r2,7
   88928:	38800135 	stwio	r2,4(r7)
   8892c:	2809883a 	mov	r4,r5
   88930:	300b883a 	mov	r5,r6
   88934:	01800274 	movhi	r6,9
   88938:	31a25404 	addi	r6,r6,-30384
   8893c:	d8000015 	stw	zero,0(sp)
   88940:	00898f00 	call	898f0 <alt_ic_isr_register>
   88944:	dfc00117 	ldw	ra,4(sp)
   88948:	dec00204 	addi	sp,sp,8
   8894c:	f800283a 	ret

00088950 <alt_avalon_timer_sc_irq>:
   88950:	defffe04 	addi	sp,sp,-8
   88954:	dfc00115 	stw	ra,4(sp)
   88958:	dc000015 	stw	r16,0(sp)
   8895c:	20000035 	stwio	zero,0(r4)
   88960:	20800137 	ldwio	r2,4(r4)
   88964:	0021303a 	rdctl	r16,status
   88968:	00bfff84 	movi	r2,-2
   8896c:	8084703a 	and	r2,r16,r2
   88970:	1001703a 	wrctl	status,r2
   88974:	0089c800 	call	89c80 <alt_tick>
   88978:	8001703a 	wrctl	status,r16
   8897c:	dfc00117 	ldw	ra,4(sp)
   88980:	dc000017 	ldw	r16,0(sp)
   88984:	dec00204 	addi	sp,sp,8
   88988:	f800283a 	ret

0008898c <alt_up_char_buffer_string>:
   8898c:	20800c17 	ldw	r2,48(r4)
   88990:	3080122e 	bgeu	r6,r2,889dc <alt_up_char_buffer_string+0x50>
   88994:	20800d17 	ldw	r2,52(r4)
   88998:	3880102e 	bgeu	r7,r2,889dc <alt_up_char_buffer_string+0x50>
   8899c:	20801017 	ldw	r2,64(r4)
   889a0:	3884983a 	sll	r2,r7,r2
   889a4:	118f883a 	add	r7,r2,r6
   889a8:	00000806 	br	889cc <alt_up_char_buffer_string+0x40>
   889ac:	20800b17 	ldw	r2,44(r4)
   889b0:	3885883a 	add	r2,r7,r2
   889b4:	10c00025 	stbio	r3,0(r2)
   889b8:	20800c17 	ldw	r2,48(r4)
   889bc:	31800044 	addi	r6,r6,1
   889c0:	29400044 	addi	r5,r5,1
   889c4:	3080052e 	bgeu	r6,r2,889dc <alt_up_char_buffer_string+0x50>
   889c8:	39c00044 	addi	r7,r7,1
   889cc:	28c00007 	ldb	r3,0(r5)
   889d0:	183ff61e 	bne	r3,zero,889ac <alt_up_char_buffer_string+0x20>
   889d4:	0005883a 	mov	r2,zero
   889d8:	f800283a 	ret
   889dc:	00bfffc4 	movi	r2,-1
   889e0:	f800283a 	ret

000889e4 <alt_up_char_buffer_draw>:
   889e4:	20800c17 	ldw	r2,48(r4)
   889e8:	3011883a 	mov	r8,r6
   889ec:	3080112e 	bgeu	r6,r2,88a34 <alt_up_char_buffer_draw+0x50>
   889f0:	20800d17 	ldw	r2,52(r4)
   889f4:	2a403fcc 	andi	r9,r5,255
   889f8:	38800e2e 	bgeu	r7,r2,88a34 <alt_up_char_buffer_draw+0x50>
   889fc:	20800f17 	ldw	r2,60(r4)
   88a00:	20c01117 	ldw	r3,68(r4)
   88a04:	21400e17 	ldw	r5,56(r4)
   88a08:	21801017 	ldw	r6,64(r4)
   88a0c:	4084703a 	and	r2,r8,r2
   88a10:	38c6703a 	and	r3,r7,r3
   88a14:	1144983a 	sll	r2,r2,r5
   88a18:	1986983a 	sll	r3,r3,r6
   88a1c:	21000b17 	ldw	r4,44(r4)
   88a20:	10c4b03a 	or	r2,r2,r3
   88a24:	1105883a 	add	r2,r2,r4
   88a28:	12400025 	stbio	r9,0(r2)
   88a2c:	0005883a 	mov	r2,zero
   88a30:	f800283a 	ret
   88a34:	00bfffc4 	movi	r2,-1
   88a38:	f800283a 	ret

00088a3c <alt_up_char_buffer_clear>:
   88a3c:	20c00a17 	ldw	r3,40(r4)
   88a40:	00800044 	movi	r2,1
   88a44:	188000a5 	stbio	r2,2(r3)
   88a48:	20800a17 	ldw	r2,40(r4)
   88a4c:	10c00084 	addi	r3,r2,2
   88a50:	18800023 	ldbuio	r2,0(r3)
   88a54:	1080004c 	andi	r2,r2,1
   88a58:	103ffd1e 	bne	r2,zero,88a50 <alt_up_char_buffer_clear+0x14>
   88a5c:	f800283a 	ret

00088a60 <alt_up_char_buffer_open_dev>:
   88a60:	01400274 	movhi	r5,9
   88a64:	29699204 	addi	r5,r5,-22968
   88a68:	00897e41 	jmpi	897e4 <alt_find_dev>

00088a6c <alt_up_char_buffer_init>:
   88a6c:	defffe04 	addi	sp,sp,-8
   88a70:	dc000015 	stw	r16,0(sp)
   88a74:	24000217 	ldw	r16,8(r4)
   88a78:	dfc00115 	stw	ra,4(sp)
   88a7c:	00000506 	br	88a94 <alt_up_char_buffer_init+0x28>
   88a80:	0089e880 	call	89e88 <strcmp>
   88a84:	1000021e 	bne	r2,zero,88a90 <alt_up_char_buffer_init+0x24>
   88a88:	80000005 	stb	zero,0(r16)
   88a8c:	00000606 	br	88aa8 <alt_up_char_buffer_init+0x3c>
   88a90:	84000044 	addi	r16,r16,1
   88a94:	80800007 	ldb	r2,0(r16)
   88a98:	8009883a 	mov	r4,r16
   88a9c:	01400274 	movhi	r5,9
   88aa0:	2968aa04 	addi	r5,r5,-23896
   88aa4:	103ff61e 	bne	r2,zero,88a80 <alt_up_char_buffer_init+0x14>
   88aa8:	dfc00117 	ldw	ra,4(sp)
   88aac:	dc000017 	ldw	r16,0(sp)
   88ab0:	dec00204 	addi	sp,sp,8
   88ab4:	f800283a 	ret

00088ab8 <helper_plot_pixel>:
   88ab8:	defffc04 	addi	sp,sp,-16
   88abc:	da000517 	ldw	r8,20(sp)
   88ac0:	dc800215 	stw	r18,8(sp)
   88ac4:	dc400115 	stw	r17,4(sp)
   88ac8:	dc000015 	stw	r16,0(sp)
   88acc:	2023883a 	mov	r17,r4
   88ad0:	2807883a 	mov	r3,r5
   88ad4:	2809883a 	mov	r4,r5
   88ad8:	dfc00315 	stw	ra,12(sp)
   88adc:	3021883a 	mov	r16,r6
   88ae0:	380b883a 	mov	r5,r7
   88ae4:	dc800417 	ldw	r18,16(sp)
   88ae8:	4000051e 	bne	r8,zero,88b00 <helper_plot_pixel+0x48>
   88aec:	008a1c80 	call	8a1c8 <__mulsi3>
   88af0:	1405883a 	add	r2,r2,r16
   88af4:	8885883a 	add	r2,r17,r2
   88af8:	14800025 	stbio	r18,0(r2)
   88afc:	00001206 	br	88b48 <helper_plot_pixel+0x90>
   88b00:	00800044 	movi	r2,1
   88b04:	1809883a 	mov	r4,r3
   88b08:	380b883a 	mov	r5,r7
   88b0c:	4080061e 	bne	r8,r2,88b28 <helper_plot_pixel+0x70>
   88b10:	008a1c80 	call	8a1c8 <__mulsi3>
   88b14:	1405883a 	add	r2,r2,r16
   88b18:	1085883a 	add	r2,r2,r2
   88b1c:	8885883a 	add	r2,r17,r2
   88b20:	1480002d 	sthio	r18,0(r2)
   88b24:	00000806 	br	88b48 <helper_plot_pixel+0x90>
   88b28:	1809883a 	mov	r4,r3
   88b2c:	380b883a 	mov	r5,r7
   88b30:	008a1c80 	call	8a1c8 <__mulsi3>
   88b34:	1405883a 	add	r2,r2,r16
   88b38:	1085883a 	add	r2,r2,r2
   88b3c:	1085883a 	add	r2,r2,r2
   88b40:	8885883a 	add	r2,r17,r2
   88b44:	14800035 	stwio	r18,0(r2)
   88b48:	dfc00317 	ldw	ra,12(sp)
   88b4c:	dc800217 	ldw	r18,8(sp)
   88b50:	dc400117 	ldw	r17,4(sp)
   88b54:	dc000017 	ldw	r16,0(sp)
   88b58:	dec00404 	addi	sp,sp,16
   88b5c:	f800283a 	ret

00088b60 <alt_up_pixel_buffer_dma_draw_line>:
   88b60:	defff304 	addi	sp,sp,-52
   88b64:	da400d17 	ldw	r9,52(sp)
   88b68:	dfc00c15 	stw	ra,48(sp)
   88b6c:	df000b15 	stw	fp,44(sp)
   88b70:	4987c83a 	sub	r3,r9,r6
   88b74:	ddc00a15 	stw	r23,40(sp)
   88b78:	dd800915 	stw	r22,36(sp)
   88b7c:	dd400815 	stw	r21,32(sp)
   88b80:	dd000715 	stw	r20,28(sp)
   88b84:	dcc00615 	stw	r19,24(sp)
   88b88:	dc800515 	stw	r18,20(sp)
   88b8c:	dc400415 	stw	r17,16(sp)
   88b90:	dc000315 	stw	r16,12(sp)
   88b94:	1800010e 	bge	r3,zero,88b9c <alt_up_pixel_buffer_dma_draw_line+0x3c>
   88b98:	00c7c83a 	sub	r3,zero,r3
   88b9c:	3945c83a 	sub	r2,r7,r5
   88ba0:	1000010e 	bge	r2,zero,88ba8 <alt_up_pixel_buffer_dma_draw_line+0x48>
   88ba4:	0085c83a 	sub	r2,zero,r2
   88ba8:	22000e17 	ldw	r8,56(r4)
   88bac:	10c4803a 	cmplt	r2,r2,r3
   88bb0:	00c00044 	movi	r3,1
   88bb4:	1015883a 	mov	r10,r2
   88bb8:	40c0021e 	bne	r8,r3,88bc4 <alt_up_pixel_buffer_dma_draw_line+0x64>
   88bbc:	d8000215 	stw	zero,8(sp)
   88bc0:	00000306 	br	88bd0 <alt_up_pixel_buffer_dma_draw_line+0x70>
   88bc4:	42000098 	cmpnei	r8,r8,2
   88bc8:	40c5883a 	add	r2,r8,r3
   88bcc:	d8800215 	stw	r2,8(sp)
   88bd0:	20800d17 	ldw	r2,52(r4)
   88bd4:	1000061e 	bne	r2,zero,88bf0 <alt_up_pixel_buffer_dma_draw_line+0x90>
   88bd8:	d8c00217 	ldw	r3,8(sp)
   88bdc:	20801317 	ldw	r2,76(r4)
   88be0:	10c5c83a 	sub	r2,r2,r3
   88be4:	00c00044 	movi	r3,1
   88be8:	18ae983a 	sll	r23,r3,r2
   88bec:	00000106 	br	88bf4 <alt_up_pixel_buffer_dma_draw_line+0x94>
   88bf0:	25c00f17 	ldw	r23,60(r4)
   88bf4:	d8c00f17 	ldw	r3,60(sp)
   88bf8:	00800044 	movi	r2,1
   88bfc:	1880021e 	bne	r3,r2,88c08 <alt_up_pixel_buffer_dma_draw_line+0xa8>
   88c00:	25800c17 	ldw	r22,48(r4)
   88c04:	00000106 	br	88c0c <alt_up_pixel_buffer_dma_draw_line+0xac>
   88c08:	25800b17 	ldw	r22,44(r4)
   88c0c:	50000426 	beq	r10,zero,88c20 <alt_up_pixel_buffer_dma_draw_line+0xc0>
   88c10:	3009883a 	mov	r4,r6
   88c14:	4827883a 	mov	r19,r9
   88c18:	280d883a 	mov	r6,r5
   88c1c:	00000306 	br	88c2c <alt_up_pixel_buffer_dma_draw_line+0xcc>
   88c20:	3827883a 	mov	r19,r7
   88c24:	2809883a 	mov	r4,r5
   88c28:	480f883a 	mov	r7,r9
   88c2c:	9900060e 	bge	r19,r4,88c48 <alt_up_pixel_buffer_dma_draw_line+0xe8>
   88c30:	9805883a 	mov	r2,r19
   88c34:	3807883a 	mov	r3,r7
   88c38:	2027883a 	mov	r19,r4
   88c3c:	300f883a 	mov	r7,r6
   88c40:	1009883a 	mov	r4,r2
   88c44:	180d883a 	mov	r6,r3
   88c48:	39a9c83a 	sub	r20,r7,r6
   88c4c:	992bc83a 	sub	r21,r19,r4
   88c50:	a000010e 	bge	r20,zero,88c58 <alt_up_pixel_buffer_dma_draw_line+0xf8>
   88c54:	0529c83a 	sub	r20,zero,r20
   88c58:	a804d7fa 	srli	r2,r21,31
   88c5c:	1545883a 	add	r2,r2,r21
   88c60:	1005d07a 	srai	r2,r2,1
   88c64:	00a1c83a 	sub	r16,zero,r2
   88c68:	31c00216 	blt	r6,r7,88c74 <alt_up_pixel_buffer_dma_draw_line+0x114>
   88c6c:	073fffc4 	movi	fp,-1
   88c70:	00000106 	br	88c78 <alt_up_pixel_buffer_dma_draw_line+0x118>
   88c74:	07000044 	movi	fp,1
   88c78:	50c03fcc 	andi	r3,r10,255
   88c7c:	18c0201c 	xori	r3,r3,128
   88c80:	18ffe004 	addi	r3,r3,-128
   88c84:	00800044 	movi	r2,1
   88c88:	18800326 	beq	r3,r2,88c98 <alt_up_pixel_buffer_dma_draw_line+0x138>
   88c8c:	2023883a 	mov	r17,r4
   88c90:	3025883a 	mov	r18,r6
   88c94:	00001c06 	br	88d08 <alt_up_pixel_buffer_dma_draw_line+0x1a8>
   88c98:	2023883a 	mov	r17,r4
   88c9c:	3025883a 	mov	r18,r6
   88ca0:	00000906 	br	88cc8 <alt_up_pixel_buffer_dma_draw_line+0x168>
   88ca4:	d8800e17 	ldw	r2,56(sp)
   88ca8:	d8c00217 	ldw	r3,8(sp)
   88cac:	8c400044 	addi	r17,r17,1
   88cb0:	d8800015 	stw	r2,0(sp)
   88cb4:	d8c00115 	stw	r3,4(sp)
   88cb8:	0088ab80 	call	88ab8 <helper_plot_pixel>
   88cbc:	0400020e 	bge	zero,r16,88cc8 <alt_up_pixel_buffer_dma_draw_line+0x168>
   88cc0:	9725883a 	add	r18,r18,fp
   88cc4:	8561c83a 	sub	r16,r16,r21
   88cc8:	8521883a 	add	r16,r16,r20
   88ccc:	900d883a 	mov	r6,r18
   88cd0:	880f883a 	mov	r7,r17
   88cd4:	b009883a 	mov	r4,r22
   88cd8:	b80b883a 	mov	r5,r23
   88cdc:	9c7ff10e 	bge	r19,r17,88ca4 <alt_up_pixel_buffer_dma_draw_line+0x144>
   88ce0:	00000f06 	br	88d20 <alt_up_pixel_buffer_dma_draw_line+0x1c0>
   88ce4:	d8800e17 	ldw	r2,56(sp)
   88ce8:	d8c00217 	ldw	r3,8(sp)
   88cec:	8c400044 	addi	r17,r17,1
   88cf0:	d8800015 	stw	r2,0(sp)
   88cf4:	d8c00115 	stw	r3,4(sp)
   88cf8:	0088ab80 	call	88ab8 <helper_plot_pixel>
   88cfc:	0400020e 	bge	zero,r16,88d08 <alt_up_pixel_buffer_dma_draw_line+0x1a8>
   88d00:	9725883a 	add	r18,r18,fp
   88d04:	8561c83a 	sub	r16,r16,r21
   88d08:	8521883a 	add	r16,r16,r20
   88d0c:	880d883a 	mov	r6,r17
   88d10:	900f883a 	mov	r7,r18
   88d14:	b009883a 	mov	r4,r22
   88d18:	b80b883a 	mov	r5,r23
   88d1c:	9c7ff10e 	bge	r19,r17,88ce4 <alt_up_pixel_buffer_dma_draw_line+0x184>
   88d20:	dfc00c17 	ldw	ra,48(sp)
   88d24:	df000b17 	ldw	fp,44(sp)
   88d28:	ddc00a17 	ldw	r23,40(sp)
   88d2c:	dd800917 	ldw	r22,36(sp)
   88d30:	dd400817 	ldw	r21,32(sp)
   88d34:	dd000717 	ldw	r20,28(sp)
   88d38:	dcc00617 	ldw	r19,24(sp)
   88d3c:	dc800517 	ldw	r18,20(sp)
   88d40:	dc400417 	ldw	r17,16(sp)
   88d44:	dc000317 	ldw	r16,12(sp)
   88d48:	dec00d04 	addi	sp,sp,52
   88d4c:	f800283a 	ret

00088d50 <alt_up_pixel_buffer_dma_draw_vline>:
   88d50:	defff904 	addi	sp,sp,-28
   88d54:	dd400515 	stw	r21,20(sp)
   88d58:	dd000415 	stw	r20,16(sp)
   88d5c:	dc800215 	stw	r18,8(sp)
   88d60:	dc400115 	stw	r17,4(sp)
   88d64:	dc000015 	stw	r16,0(sp)
   88d68:	dfc00615 	stw	ra,24(sp)
   88d6c:	dcc00315 	stw	r19,12(sp)
   88d70:	3021883a 	mov	r16,r6
   88d74:	3829883a 	mov	r20,r7
   88d78:	2825883a 	mov	r18,r5
   88d7c:	dd400717 	ldw	r21,28(sp)
   88d80:	24400f17 	ldw	r17,60(r4)
   88d84:	20801017 	ldw	r2,64(r4)
   88d88:	3980022e 	bgeu	r7,r6,88d94 <alt_up_pixel_buffer_dma_draw_vline+0x44>
   88d8c:	3029883a 	mov	r20,r6
   88d90:	3821883a 	mov	r16,r7
   88d94:	94405f2e 	bgeu	r18,r17,88f14 <alt_up_pixel_buffer_dma_draw_vline+0x1c4>
   88d98:	80805e2e 	bgeu	r16,r2,88f14 <alt_up_pixel_buffer_dma_draw_vline+0x1c4>
   88d9c:	a0800136 	bltu	r20,r2,88da4 <alt_up_pixel_buffer_dma_draw_vline+0x54>
   88da0:	153fffc4 	addi	r20,r2,-1
   88da4:	d8c00817 	ldw	r3,32(sp)
   88da8:	00800044 	movi	r2,1
   88dac:	1880021e 	bne	r3,r2,88db8 <alt_up_pixel_buffer_dma_draw_vline+0x68>
   88db0:	24c00c17 	ldw	r19,48(r4)
   88db4:	00000106 	br	88dbc <alt_up_pixel_buffer_dma_draw_vline+0x6c>
   88db8:	24c00b17 	ldw	r19,44(r4)
   88dbc:	20800d17 	ldw	r2,52(r4)
   88dc0:	20c00e17 	ldw	r3,56(r4)
   88dc4:	1000261e 	bne	r2,zero,88e60 <alt_up_pixel_buffer_dma_draw_vline+0x110>
   88dc8:	21001317 	ldw	r4,76(r4)
   88dcc:	01400044 	movi	r5,1
   88dd0:	8104983a 	sll	r2,r16,r4
   88dd4:	988f883a 	add	r7,r19,r2
   88dd8:	1940091e 	bne	r3,r5,88e00 <alt_up_pixel_buffer_dma_draw_vline+0xb0>
   88ddc:	1908983a 	sll	r4,r3,r4
   88de0:	800d883a 	mov	r6,r16
   88de4:	00000306 	br	88df4 <alt_up_pixel_buffer_dma_draw_vline+0xa4>
   88de8:	15400025 	stbio	r21,0(r2)
   88dec:	390f883a 	add	r7,r7,r4
   88df0:	31800044 	addi	r6,r6,1
   88df4:	3c85883a 	add	r2,r7,r18
   88df8:	a1bffb2e 	bgeu	r20,r6,88de8 <alt_up_pixel_buffer_dma_draw_vline+0x98>
   88dfc:	00004506 	br	88f14 <alt_up_pixel_buffer_dma_draw_vline+0x1c4>
   88e00:	00800084 	movi	r2,2
   88e04:	18800226 	beq	r3,r2,88e10 <alt_up_pixel_buffer_dma_draw_vline+0xc0>
   88e08:	800d883a 	mov	r6,r16
   88e0c:	00000f06 	br	88e4c <alt_up_pixel_buffer_dma_draw_vline+0xfc>
   88e10:	2908983a 	sll	r4,r5,r4
   88e14:	800d883a 	mov	r6,r16
   88e18:	9485883a 	add	r2,r18,r18
   88e1c:	00000306 	br	88e2c <alt_up_pixel_buffer_dma_draw_vline+0xdc>
   88e20:	4540002d 	sthio	r21,0(r8)
   88e24:	390f883a 	add	r7,r7,r4
   88e28:	31800044 	addi	r6,r6,1
   88e2c:	3891883a 	add	r8,r7,r2
   88e30:	a1bffb2e 	bgeu	r20,r6,88e20 <alt_up_pixel_buffer_dma_draw_vline+0xd0>
   88e34:	00003706 	br	88f14 <alt_up_pixel_buffer_dma_draw_vline+0x1c4>
   88e38:	15400035 	stwio	r21,0(r2)
   88e3c:	00800044 	movi	r2,1
   88e40:	1104983a 	sll	r2,r2,r4
   88e44:	31800044 	addi	r6,r6,1
   88e48:	388f883a 	add	r7,r7,r2
   88e4c:	9485883a 	add	r2,r18,r18
   88e50:	1085883a 	add	r2,r2,r2
   88e54:	3885883a 	add	r2,r7,r2
   88e58:	a1bff72e 	bgeu	r20,r6,88e38 <alt_up_pixel_buffer_dma_draw_vline+0xe8>
   88e5c:	00002d06 	br	88f14 <alt_up_pixel_buffer_dma_draw_vline+0x1c4>
   88e60:	00800044 	movi	r2,1
   88e64:	18800d1e 	bne	r3,r2,88e9c <alt_up_pixel_buffer_dma_draw_vline+0x14c>
   88e68:	8009883a 	mov	r4,r16
   88e6c:	880b883a 	mov	r5,r17
   88e70:	008a1c80 	call	8a1c8 <__mulsi3>
   88e74:	9885883a 	add	r2,r19,r2
   88e78:	1485883a 	add	r2,r2,r18
   88e7c:	800d883a 	mov	r6,r16
   88e80:	00000206 	br	88e8c <alt_up_pixel_buffer_dma_draw_vline+0x13c>
   88e84:	1d400025 	stbio	r21,0(r3)
   88e88:	31800044 	addi	r6,r6,1
   88e8c:	1445883a 	add	r2,r2,r17
   88e90:	1447c83a 	sub	r3,r2,r17
   88e94:	a1bffb2e 	bgeu	r20,r6,88e84 <alt_up_pixel_buffer_dma_draw_vline+0x134>
   88e98:	00001e06 	br	88f14 <alt_up_pixel_buffer_dma_draw_vline+0x1c4>
   88e9c:	00800084 	movi	r2,2
   88ea0:	8c63883a 	add	r17,r17,r17
   88ea4:	18800d1e 	bne	r3,r2,88edc <alt_up_pixel_buffer_dma_draw_vline+0x18c>
   88ea8:	8009883a 	mov	r4,r16
   88eac:	880b883a 	mov	r5,r17
   88eb0:	008a1c80 	call	8a1c8 <__mulsi3>
   88eb4:	9885883a 	add	r2,r19,r2
   88eb8:	800d883a 	mov	r6,r16
   88ebc:	9487883a 	add	r3,r18,r18
   88ec0:	00000306 	br	88ed0 <alt_up_pixel_buffer_dma_draw_vline+0x180>
   88ec4:	2540002d 	sthio	r21,0(r4)
   88ec8:	1445883a 	add	r2,r2,r17
   88ecc:	31800044 	addi	r6,r6,1
   88ed0:	10c9883a 	add	r4,r2,r3
   88ed4:	a1bffb2e 	bgeu	r20,r6,88ec4 <alt_up_pixel_buffer_dma_draw_vline+0x174>
   88ed8:	00000e06 	br	88f14 <alt_up_pixel_buffer_dma_draw_vline+0x1c4>
   88edc:	8c63883a 	add	r17,r17,r17
   88ee0:	8009883a 	mov	r4,r16
   88ee4:	880b883a 	mov	r5,r17
   88ee8:	008a1c80 	call	8a1c8 <__mulsi3>
   88eec:	9487883a 	add	r3,r18,r18
   88ef0:	9885883a 	add	r2,r19,r2
   88ef4:	800d883a 	mov	r6,r16
   88ef8:	18c7883a 	add	r3,r3,r3
   88efc:	00000306 	br	88f0c <alt_up_pixel_buffer_dma_draw_vline+0x1bc>
   88f00:	25400035 	stwio	r21,0(r4)
   88f04:	1445883a 	add	r2,r2,r17
   88f08:	31800044 	addi	r6,r6,1
   88f0c:	10c9883a 	add	r4,r2,r3
   88f10:	a1bffb2e 	bgeu	r20,r6,88f00 <alt_up_pixel_buffer_dma_draw_vline+0x1b0>
   88f14:	dfc00617 	ldw	ra,24(sp)
   88f18:	dd400517 	ldw	r21,20(sp)
   88f1c:	dd000417 	ldw	r20,16(sp)
   88f20:	dcc00317 	ldw	r19,12(sp)
   88f24:	dc800217 	ldw	r18,8(sp)
   88f28:	dc400117 	ldw	r17,4(sp)
   88f2c:	dc000017 	ldw	r16,0(sp)
   88f30:	dec00704 	addi	sp,sp,28
   88f34:	f800283a 	ret

00088f38 <alt_up_pixel_buffer_dma_draw_hline>:
   88f38:	defffb04 	addi	sp,sp,-20
   88f3c:	3007883a 	mov	r3,r6
   88f40:	280d883a 	mov	r6,r5
   88f44:	dc800315 	stw	r18,12(sp)
   88f48:	dc400215 	stw	r17,8(sp)
   88f4c:	dfc00415 	stw	ra,16(sp)
   88f50:	dc000115 	stw	r16,4(sp)
   88f54:	1823883a 	mov	r17,r3
   88f58:	dc800517 	ldw	r18,20(sp)
   88f5c:	21400f17 	ldw	r5,60(r4)
   88f60:	20801017 	ldw	r2,64(r4)
   88f64:	1980022e 	bgeu	r3,r6,88f70 <alt_up_pixel_buffer_dma_draw_hline+0x38>
   88f68:	3023883a 	mov	r17,r6
   88f6c:	180d883a 	mov	r6,r3
   88f70:	31405a2e 	bgeu	r6,r5,890dc <alt_up_pixel_buffer_dma_draw_hline+0x1a4>
   88f74:	3880592e 	bgeu	r7,r2,890dc <alt_up_pixel_buffer_dma_draw_hline+0x1a4>
   88f78:	89400136 	bltu	r17,r5,88f80 <alt_up_pixel_buffer_dma_draw_hline+0x48>
   88f7c:	2c7fffc4 	addi	r17,r5,-1
   88f80:	d8c00617 	ldw	r3,24(sp)
   88f84:	00800044 	movi	r2,1
   88f88:	1880021e 	bne	r3,r2,88f94 <alt_up_pixel_buffer_dma_draw_hline+0x5c>
   88f8c:	24000c17 	ldw	r16,48(r4)
   88f90:	00000106 	br	88f98 <alt_up_pixel_buffer_dma_draw_hline+0x60>
   88f94:	24000b17 	ldw	r16,44(r4)
   88f98:	20800d17 	ldw	r2,52(r4)
   88f9c:	20c00e17 	ldw	r3,56(r4)
   88fa0:	1000201e 	bne	r2,zero,89024 <alt_up_pixel_buffer_dma_draw_hline+0xec>
   88fa4:	20801317 	ldw	r2,76(r4)
   88fa8:	3884983a 	sll	r2,r7,r2
   88fac:	8089883a 	add	r4,r16,r2
   88fb0:	00800044 	movi	r2,1
   88fb4:	1880081e 	bne	r3,r2,88fd8 <alt_up_pixel_buffer_dma_draw_hline+0xa0>
   88fb8:	2185883a 	add	r2,r4,r6
   88fbc:	300b883a 	mov	r5,r6
   88fc0:	00000306 	br	88fd0 <alt_up_pixel_buffer_dma_draw_hline+0x98>
   88fc4:	14800025 	stbio	r18,0(r2)
   88fc8:	29400044 	addi	r5,r5,1
   88fcc:	10800044 	addi	r2,r2,1
   88fd0:	897ffc2e 	bgeu	r17,r5,88fc4 <alt_up_pixel_buffer_dma_draw_hline+0x8c>
   88fd4:	00004106 	br	890dc <alt_up_pixel_buffer_dma_draw_hline+0x1a4>
   88fd8:	00800084 	movi	r2,2
   88fdc:	18800226 	beq	r3,r2,88fe8 <alt_up_pixel_buffer_dma_draw_hline+0xb0>
   88fe0:	300b883a 	mov	r5,r6
   88fe4:	00000a06 	br	89010 <alt_up_pixel_buffer_dma_draw_hline+0xd8>
   88fe8:	300b883a 	mov	r5,r6
   88fec:	00000206 	br	88ff8 <alt_up_pixel_buffer_dma_draw_hline+0xc0>
   88ff0:	1480002d 	sthio	r18,0(r2)
   88ff4:	29400044 	addi	r5,r5,1
   88ff8:	2945883a 	add	r2,r5,r5
   88ffc:	2085883a 	add	r2,r4,r2
   89000:	897ffb2e 	bgeu	r17,r5,88ff0 <alt_up_pixel_buffer_dma_draw_hline+0xb8>
   89004:	00003506 	br	890dc <alt_up_pixel_buffer_dma_draw_hline+0x1a4>
   89008:	14800035 	stwio	r18,0(r2)
   8900c:	29400044 	addi	r5,r5,1
   89010:	2945883a 	add	r2,r5,r5
   89014:	1085883a 	add	r2,r2,r2
   89018:	2085883a 	add	r2,r4,r2
   8901c:	897ffa2e 	bgeu	r17,r5,89008 <alt_up_pixel_buffer_dma_draw_hline+0xd0>
   89020:	00002e06 	br	890dc <alt_up_pixel_buffer_dma_draw_hline+0x1a4>
   89024:	00800044 	movi	r2,1
   89028:	18800d1e 	bne	r3,r2,89060 <alt_up_pixel_buffer_dma_draw_hline+0x128>
   8902c:	3809883a 	mov	r4,r7
   89030:	d9800015 	stw	r6,0(sp)
   89034:	008a1c80 	call	8a1c8 <__mulsi3>
   89038:	d9800017 	ldw	r6,0(sp)
   8903c:	8085883a 	add	r2,r16,r2
   89040:	1185883a 	add	r2,r2,r6
   89044:	300b883a 	mov	r5,r6
   89048:	00000306 	br	89058 <alt_up_pixel_buffer_dma_draw_hline+0x120>
   8904c:	14800025 	stbio	r18,0(r2)
   89050:	29400044 	addi	r5,r5,1
   89054:	10800044 	addi	r2,r2,1
   89058:	897ffc2e 	bgeu	r17,r5,8904c <alt_up_pixel_buffer_dma_draw_hline+0x114>
   8905c:	00001f06 	br	890dc <alt_up_pixel_buffer_dma_draw_hline+0x1a4>
   89060:	00800084 	movi	r2,2
   89064:	294b883a 	add	r5,r5,r5
   89068:	18800d1e 	bne	r3,r2,890a0 <alt_up_pixel_buffer_dma_draw_hline+0x168>
   8906c:	3809883a 	mov	r4,r7
   89070:	d9800015 	stw	r6,0(sp)
   89074:	008a1c80 	call	8a1c8 <__mulsi3>
   89078:	d9800017 	ldw	r6,0(sp)
   8907c:	8087883a 	add	r3,r16,r2
   89080:	300b883a 	mov	r5,r6
   89084:	00000206 	br	89090 <alt_up_pixel_buffer_dma_draw_hline+0x158>
   89088:	1480002d 	sthio	r18,0(r2)
   8908c:	29400044 	addi	r5,r5,1
   89090:	2945883a 	add	r2,r5,r5
   89094:	1885883a 	add	r2,r3,r2
   89098:	897ffb2e 	bgeu	r17,r5,89088 <alt_up_pixel_buffer_dma_draw_hline+0x150>
   8909c:	00000f06 	br	890dc <alt_up_pixel_buffer_dma_draw_hline+0x1a4>
   890a0:	294b883a 	add	r5,r5,r5
   890a4:	3809883a 	mov	r4,r7
   890a8:	d9800015 	stw	r6,0(sp)
   890ac:	008a1c80 	call	8a1c8 <__mulsi3>
   890b0:	d9800017 	ldw	r6,0(sp)
   890b4:	8085883a 	add	r2,r16,r2
   890b8:	3187883a 	add	r3,r6,r6
   890bc:	18c7883a 	add	r3,r3,r3
   890c0:	300b883a 	mov	r5,r6
   890c4:	1885883a 	add	r2,r3,r2
   890c8:	00000306 	br	890d8 <alt_up_pixel_buffer_dma_draw_hline+0x1a0>
   890cc:	14800035 	stwio	r18,0(r2)
   890d0:	29400044 	addi	r5,r5,1
   890d4:	10800104 	addi	r2,r2,4
   890d8:	897ffc2e 	bgeu	r17,r5,890cc <alt_up_pixel_buffer_dma_draw_hline+0x194>
   890dc:	dfc00417 	ldw	ra,16(sp)
   890e0:	dc800317 	ldw	r18,12(sp)
   890e4:	dc400217 	ldw	r17,8(sp)
   890e8:	dc000117 	ldw	r16,4(sp)
   890ec:	dec00504 	addi	sp,sp,20
   890f0:	f800283a 	ret

000890f4 <alt_up_pixel_buffer_dma_draw_rectangle>:
   890f4:	defff604 	addi	sp,sp,-40
   890f8:	dd400715 	stw	r21,28(sp)
   890fc:	dcc00515 	stw	r19,20(sp)
   89100:	dd400a17 	ldw	r21,40(sp)
   89104:	dcc00c17 	ldw	r19,48(sp)
   89108:	dc800415 	stw	r18,16(sp)
   8910c:	dc800b17 	ldw	r18,44(sp)
   89110:	dd000615 	stw	r20,24(sp)
   89114:	3029883a 	mov	r20,r6
   89118:	dd800815 	stw	r22,32(sp)
   8911c:	dc400315 	stw	r17,12(sp)
   89120:	282d883a 	mov	r22,r5
   89124:	3823883a 	mov	r17,r7
   89128:	dc000215 	stw	r16,8(sp)
   8912c:	380d883a 	mov	r6,r7
   89130:	2021883a 	mov	r16,r4
   89134:	a00f883a 	mov	r7,r20
   89138:	dfc00915 	stw	ra,36(sp)
   8913c:	dc800015 	stw	r18,0(sp)
   89140:	dcc00115 	stw	r19,4(sp)
   89144:	0088f380 	call	88f38 <alt_up_pixel_buffer_dma_draw_hline>
   89148:	8009883a 	mov	r4,r16
   8914c:	b00b883a 	mov	r5,r22
   89150:	880d883a 	mov	r6,r17
   89154:	a80f883a 	mov	r7,r21
   89158:	dc800015 	stw	r18,0(sp)
   8915c:	dcc00115 	stw	r19,4(sp)
   89160:	0088f380 	call	88f38 <alt_up_pixel_buffer_dma_draw_hline>
   89164:	b00b883a 	mov	r5,r22
   89168:	8009883a 	mov	r4,r16
   8916c:	a00d883a 	mov	r6,r20
   89170:	a80f883a 	mov	r7,r21
   89174:	dc800015 	stw	r18,0(sp)
   89178:	dcc00115 	stw	r19,4(sp)
   8917c:	0088d500 	call	88d50 <alt_up_pixel_buffer_dma_draw_vline>
   89180:	8009883a 	mov	r4,r16
   89184:	880b883a 	mov	r5,r17
   89188:	a00d883a 	mov	r6,r20
   8918c:	a80f883a 	mov	r7,r21
   89190:	dc800a15 	stw	r18,40(sp)
   89194:	dcc00b15 	stw	r19,44(sp)
   89198:	dfc00917 	ldw	ra,36(sp)
   8919c:	dd800817 	ldw	r22,32(sp)
   891a0:	dd400717 	ldw	r21,28(sp)
   891a4:	dd000617 	ldw	r20,24(sp)
   891a8:	dcc00517 	ldw	r19,20(sp)
   891ac:	dc800417 	ldw	r18,16(sp)
   891b0:	dc400317 	ldw	r17,12(sp)
   891b4:	dc000217 	ldw	r16,8(sp)
   891b8:	dec00a04 	addi	sp,sp,40
   891bc:	0088d501 	jmpi	88d50 <alt_up_pixel_buffer_dma_draw_vline>

000891c0 <alt_up_pixel_buffer_dma_draw_box>:
   891c0:	defff804 	addi	sp,sp,-32
   891c4:	da000817 	ldw	r8,32(sp)
   891c8:	3807883a 	mov	r3,r7
   891cc:	dd000615 	stw	r20,24(sp)
   891d0:	dcc00515 	stw	r19,20(sp)
   891d4:	dc800415 	stw	r18,16(sp)
   891d8:	dc000215 	stw	r16,8(sp)
   891dc:	dfc00715 	stw	ra,28(sp)
   891e0:	dc400315 	stw	r17,12(sp)
   891e4:	280f883a 	mov	r7,r5
   891e8:	1827883a 	mov	r19,r3
   891ec:	dd000917 	ldw	r20,36(sp)
   891f0:	24000f17 	ldw	r16,60(r4)
   891f4:	20801017 	ldw	r2,64(r4)
   891f8:	4025883a 	mov	r18,r8
   891fc:	1940022e 	bgeu	r3,r5,89208 <alt_up_pixel_buffer_dma_draw_box+0x48>
   89200:	2827883a 	mov	r19,r5
   89204:	180f883a 	mov	r7,r3
   89208:	9180022e 	bgeu	r18,r6,89214 <alt_up_pixel_buffer_dma_draw_box+0x54>
   8920c:	3025883a 	mov	r18,r6
   89210:	400d883a 	mov	r6,r8
   89214:	3c007d2e 	bgeu	r7,r16,8940c <alt_up_pixel_buffer_dma_draw_box+0x24c>
   89218:	30807c2e 	bgeu	r6,r2,8940c <alt_up_pixel_buffer_dma_draw_box+0x24c>
   8921c:	9c000136 	bltu	r19,r16,89224 <alt_up_pixel_buffer_dma_draw_box+0x64>
   89220:	84ffffc4 	addi	r19,r16,-1
   89224:	90800136 	bltu	r18,r2,8922c <alt_up_pixel_buffer_dma_draw_box+0x6c>
   89228:	14bfffc4 	addi	r18,r2,-1
   8922c:	d8c00a17 	ldw	r3,40(sp)
   89230:	00800044 	movi	r2,1
   89234:	1880021e 	bne	r3,r2,89240 <alt_up_pixel_buffer_dma_draw_box+0x80>
   89238:	24400c17 	ldw	r17,48(r4)
   8923c:	00000106 	br	89244 <alt_up_pixel_buffer_dma_draw_box+0x84>
   89240:	24400b17 	ldw	r17,44(r4)
   89244:	20800d17 	ldw	r2,52(r4)
   89248:	20c00e17 	ldw	r3,56(r4)
   8924c:	10002e1e 	bne	r2,zero,89308 <alt_up_pixel_buffer_dma_draw_box+0x148>
   89250:	21001317 	ldw	r4,76(r4)
   89254:	3104983a 	sll	r2,r6,r4
   89258:	888b883a 	add	r5,r17,r2
   8925c:	00800044 	movi	r2,1
   89260:	18800d1e 	bne	r3,r2,89298 <alt_up_pixel_buffer_dma_draw_box+0xd8>
   89264:	00000806 	br	89288 <alt_up_pixel_buffer_dma_draw_box+0xc8>
   89268:	1d000025 	stbio	r20,0(r3)
   8926c:	10800044 	addi	r2,r2,1
   89270:	18c00044 	addi	r3,r3,1
   89274:	98bffc2e 	bgeu	r19,r2,89268 <alt_up_pixel_buffer_dma_draw_box+0xa8>
   89278:	00800044 	movi	r2,1
   8927c:	1104983a 	sll	r2,r2,r4
   89280:	31800044 	addi	r6,r6,1
   89284:	288b883a 	add	r5,r5,r2
   89288:	91806036 	bltu	r18,r6,8940c <alt_up_pixel_buffer_dma_draw_box+0x24c>
   8928c:	29c7883a 	add	r3,r5,r7
   89290:	3805883a 	mov	r2,r7
   89294:	003ff706 	br	89274 <alt_up_pixel_buffer_dma_draw_box+0xb4>
   89298:	00800084 	movi	r2,2
   8929c:	1880171e 	bne	r3,r2,892fc <alt_up_pixel_buffer_dma_draw_box+0x13c>
   892a0:	00000906 	br	892c8 <alt_up_pixel_buffer_dma_draw_box+0x108>
   892a4:	1500002d 	sthio	r20,0(r2)
   892a8:	18c00044 	addi	r3,r3,1
   892ac:	18c5883a 	add	r2,r3,r3
   892b0:	2885883a 	add	r2,r5,r2
   892b4:	98fffb2e 	bgeu	r19,r3,892a4 <alt_up_pixel_buffer_dma_draw_box+0xe4>
   892b8:	00800044 	movi	r2,1
   892bc:	1104983a 	sll	r2,r2,r4
   892c0:	31800044 	addi	r6,r6,1
   892c4:	288b883a 	add	r5,r5,r2
   892c8:	91805036 	bltu	r18,r6,8940c <alt_up_pixel_buffer_dma_draw_box+0x24c>
   892cc:	3807883a 	mov	r3,r7
   892d0:	003ff606 	br	892ac <alt_up_pixel_buffer_dma_draw_box+0xec>
   892d4:	15000035 	stwio	r20,0(r2)
   892d8:	18c00044 	addi	r3,r3,1
   892dc:	18c5883a 	add	r2,r3,r3
   892e0:	1085883a 	add	r2,r2,r2
   892e4:	2885883a 	add	r2,r5,r2
   892e8:	98fffa2e 	bgeu	r19,r3,892d4 <alt_up_pixel_buffer_dma_draw_box+0x114>
   892ec:	00800044 	movi	r2,1
   892f0:	1104983a 	sll	r2,r2,r4
   892f4:	31800044 	addi	r6,r6,1
   892f8:	288b883a 	add	r5,r5,r2
   892fc:	91804336 	bltu	r18,r6,8940c <alt_up_pixel_buffer_dma_draw_box+0x24c>
   89300:	3807883a 	mov	r3,r7
   89304:	003ff506 	br	892dc <alt_up_pixel_buffer_dma_draw_box+0x11c>
   89308:	00800044 	movi	r2,1
   8930c:	1880141e 	bne	r3,r2,89360 <alt_up_pixel_buffer_dma_draw_box+0x1a0>
   89310:	3009883a 	mov	r4,r6
   89314:	800b883a 	mov	r5,r16
   89318:	d9800015 	stw	r6,0(sp)
   8931c:	d9c00115 	stw	r7,4(sp)
   89320:	008a1c80 	call	8a1c8 <__mulsi3>
   89324:	d9c00117 	ldw	r7,4(sp)
   89328:	d9800017 	ldw	r6,0(sp)
   8932c:	8885883a 	add	r2,r17,r2
   89330:	11c5883a 	add	r2,r2,r7
   89334:	00000606 	br	89350 <alt_up_pixel_buffer_dma_draw_box+0x190>
   89338:	25000025 	stbio	r20,0(r4)
   8933c:	18c00044 	addi	r3,r3,1
   89340:	21000044 	addi	r4,r4,1
   89344:	98fffc2e 	bgeu	r19,r3,89338 <alt_up_pixel_buffer_dma_draw_box+0x178>
   89348:	31800044 	addi	r6,r6,1
   8934c:	1405883a 	add	r2,r2,r16
   89350:	91802e36 	bltu	r18,r6,8940c <alt_up_pixel_buffer_dma_draw_box+0x24c>
   89354:	1009883a 	mov	r4,r2
   89358:	3807883a 	mov	r3,r7
   8935c:	003ff906 	br	89344 <alt_up_pixel_buffer_dma_draw_box+0x184>
   89360:	00800084 	movi	r2,2
   89364:	8421883a 	add	r16,r16,r16
   89368:	1880131e 	bne	r3,r2,893b8 <alt_up_pixel_buffer_dma_draw_box+0x1f8>
   8936c:	3009883a 	mov	r4,r6
   89370:	800b883a 	mov	r5,r16
   89374:	d9800015 	stw	r6,0(sp)
   89378:	d9c00115 	stw	r7,4(sp)
   8937c:	008a1c80 	call	8a1c8 <__mulsi3>
   89380:	d9800017 	ldw	r6,0(sp)
   89384:	d9c00117 	ldw	r7,4(sp)
   89388:	8889883a 	add	r4,r17,r2
   8938c:	00000706 	br	893ac <alt_up_pixel_buffer_dma_draw_box+0x1ec>
   89390:	1500002d 	sthio	r20,0(r2)
   89394:	18c00044 	addi	r3,r3,1
   89398:	18c5883a 	add	r2,r3,r3
   8939c:	2085883a 	add	r2,r4,r2
   893a0:	98fffb2e 	bgeu	r19,r3,89390 <alt_up_pixel_buffer_dma_draw_box+0x1d0>
   893a4:	2409883a 	add	r4,r4,r16
   893a8:	31800044 	addi	r6,r6,1
   893ac:	91801736 	bltu	r18,r6,8940c <alt_up_pixel_buffer_dma_draw_box+0x24c>
   893b0:	3807883a 	mov	r3,r7
   893b4:	003ff806 	br	89398 <alt_up_pixel_buffer_dma_draw_box+0x1d8>
   893b8:	8421883a 	add	r16,r16,r16
   893bc:	3009883a 	mov	r4,r6
   893c0:	800b883a 	mov	r5,r16
   893c4:	d9800015 	stw	r6,0(sp)
   893c8:	d9c00115 	stw	r7,4(sp)
   893cc:	008a1c80 	call	8a1c8 <__mulsi3>
   893d0:	d9800017 	ldw	r6,0(sp)
   893d4:	d9c00117 	ldw	r7,4(sp)
   893d8:	8889883a 	add	r4,r17,r2
   893dc:	00000806 	br	89400 <alt_up_pixel_buffer_dma_draw_box+0x240>
   893e0:	15000035 	stwio	r20,0(r2)
   893e4:	18c00044 	addi	r3,r3,1
   893e8:	18c5883a 	add	r2,r3,r3
   893ec:	1085883a 	add	r2,r2,r2
   893f0:	2085883a 	add	r2,r4,r2
   893f4:	98fffa2e 	bgeu	r19,r3,893e0 <alt_up_pixel_buffer_dma_draw_box+0x220>
   893f8:	2409883a 	add	r4,r4,r16
   893fc:	31800044 	addi	r6,r6,1
   89400:	91800236 	bltu	r18,r6,8940c <alt_up_pixel_buffer_dma_draw_box+0x24c>
   89404:	3807883a 	mov	r3,r7
   89408:	003ff706 	br	893e8 <alt_up_pixel_buffer_dma_draw_box+0x228>
   8940c:	dfc00717 	ldw	ra,28(sp)
   89410:	dd000617 	ldw	r20,24(sp)
   89414:	dcc00517 	ldw	r19,20(sp)
   89418:	dc800417 	ldw	r18,16(sp)
   8941c:	dc400317 	ldw	r17,12(sp)
   89420:	dc000217 	ldw	r16,8(sp)
   89424:	dec00804 	addi	sp,sp,32
   89428:	f800283a 	ret

0008942c <alt_up_pixel_buffer_dma_clear_screen>:
   8942c:	defffe04 	addi	sp,sp,-8
   89430:	00800044 	movi	r2,1
   89434:	dfc00115 	stw	ra,4(sp)
   89438:	dc000015 	stw	r16,0(sp)
   8943c:	200d883a 	mov	r6,r4
   89440:	2880021e 	bne	r5,r2,8944c <alt_up_pixel_buffer_dma_clear_screen+0x20>
   89444:	24000c17 	ldw	r16,48(r4)
   89448:	00000106 	br	89450 <alt_up_pixel_buffer_dma_clear_screen+0x24>
   8944c:	24000b17 	ldw	r16,44(r4)
   89450:	30800f17 	ldw	r2,60(r6)
   89454:	30c00e17 	ldw	r3,56(r6)
   89458:	1089883a 	add	r4,r2,r2
   8945c:	00800084 	movi	r2,2
   89460:	18800126 	beq	r3,r2,89468 <alt_up_pixel_buffer_dma_clear_screen+0x3c>
   89464:	2109883a 	add	r4,r4,r4
   89468:	30800d17 	ldw	r2,52(r6)
   8946c:	31401017 	ldw	r5,64(r6)
   89470:	10000e1e 	bne	r2,zero,894ac <alt_up_pixel_buffer_dma_clear_screen+0x80>
   89474:	31c01317 	ldw	r7,76(r6)
   89478:	000d883a 	mov	r6,zero
   8947c:	00000806 	br	894a0 <alt_up_pixel_buffer_dma_clear_screen+0x74>
   89480:	18000035 	stwio	zero,0(r3)
   89484:	10800104 	addi	r2,r2,4
   89488:	8087883a 	add	r3,r16,r2
   8948c:	113ffc36 	bltu	r2,r4,89480 <alt_up_pixel_buffer_dma_clear_screen+0x54>
   89490:	00800044 	movi	r2,1
   89494:	11c4983a 	sll	r2,r2,r7
   89498:	31800044 	addi	r6,r6,1
   8949c:	80a1883a 	add	r16,r16,r2
   894a0:	31400926 	beq	r6,r5,894c8 <alt_up_pixel_buffer_dma_clear_screen+0x9c>
   894a4:	0005883a 	mov	r2,zero
   894a8:	003ff706 	br	89488 <alt_up_pixel_buffer_dma_clear_screen+0x5c>
   894ac:	008a1c80 	call	8a1c8 <__mulsi3>
   894b0:	0007883a 	mov	r3,zero
   894b4:	00000206 	br	894c0 <alt_up_pixel_buffer_dma_clear_screen+0x94>
   894b8:	20000035 	stwio	zero,0(r4)
   894bc:	18c00104 	addi	r3,r3,4
   894c0:	80c9883a 	add	r4,r16,r3
   894c4:	18bffc36 	bltu	r3,r2,894b8 <alt_up_pixel_buffer_dma_clear_screen+0x8c>
   894c8:	dfc00117 	ldw	ra,4(sp)
   894cc:	dc000017 	ldw	r16,0(sp)
   894d0:	dec00204 	addi	sp,sp,8
   894d4:	f800283a 	ret

000894d8 <alt_up_pixel_buffer_dma_swap_buffers>:
   894d8:	21400c17 	ldw	r5,48(r4)
   894dc:	20c00a17 	ldw	r3,40(r4)
   894e0:	00800044 	movi	r2,1
   894e4:	18800035 	stwio	r2,0(r3)
   894e8:	20c00b17 	ldw	r3,44(r4)
   894ec:	0005883a 	mov	r2,zero
   894f0:	21400b15 	stw	r5,44(r4)
   894f4:	20c00c15 	stw	r3,48(r4)
   894f8:	f800283a 	ret

000894fc <alt_up_pixel_buffer_dma_draw>:
   894fc:	22000f17 	ldw	r8,60(r4)
   89500:	defffb04 	addi	sp,sp,-20
   89504:	dcc00315 	stw	r19,12(sp)
   89508:	dc400115 	stw	r17,4(sp)
   8950c:	dfc00415 	stw	ra,16(sp)
   89510:	dc800215 	stw	r18,8(sp)
   89514:	dc000015 	stw	r16,0(sp)
   89518:	2023883a 	mov	r17,r4
   8951c:	2827883a 	mov	r19,r5
   89520:	3200262e 	bgeu	r6,r8,895bc <alt_up_pixel_buffer_dma_draw+0xc0>
   89524:	20801017 	ldw	r2,64(r4)
   89528:	3880242e 	bgeu	r7,r2,895bc <alt_up_pixel_buffer_dma_draw+0xc0>
   8952c:	20800d17 	ldw	r2,52(r4)
   89530:	20c01217 	ldw	r3,72(r4)
   89534:	24801117 	ldw	r18,68(r4)
   89538:	21401417 	ldw	r5,80(r4)
   8953c:	1000071e 	bne	r2,zero,8955c <alt_up_pixel_buffer_dma_draw+0x60>
   89540:	21001317 	ldw	r4,76(r4)
   89544:	30c6703a 	and	r3,r6,r3
   89548:	3944703a 	and	r2,r7,r5
   8954c:	1c86983a 	sll	r3,r3,r18
   89550:	1104983a 	sll	r2,r2,r4
   89554:	1886b03a 	or	r3,r3,r2
   89558:	00000706 	br	89578 <alt_up_pixel_buffer_dma_draw+0x7c>
   8955c:	3948703a 	and	r4,r7,r5
   89560:	400b883a 	mov	r5,r8
   89564:	30e0703a 	and	r16,r6,r3
   89568:	008a1c80 	call	8a1c8 <__mulsi3>
   8956c:	84a0983a 	sll	r16,r16,r18
   89570:	1484983a 	sll	r2,r2,r18
   89574:	8087883a 	add	r3,r16,r2
   89578:	89400e17 	ldw	r5,56(r17)
   8957c:	00800044 	movi	r2,1
   89580:	2880041e 	bne	r5,r2,89594 <alt_up_pixel_buffer_dma_draw+0x98>
   89584:	88800c17 	ldw	r2,48(r17)
   89588:	1885883a 	add	r2,r3,r2
   8958c:	14c00025 	stbio	r19,0(r2)
   89590:	00000506 	br	895a8 <alt_up_pixel_buffer_dma_draw+0xac>
   89594:	00800084 	movi	r2,2
   89598:	89000c17 	ldw	r4,48(r17)
   8959c:	2880041e 	bne	r5,r2,895b0 <alt_up_pixel_buffer_dma_draw+0xb4>
   895a0:	1905883a 	add	r2,r3,r4
   895a4:	14c0002d 	sthio	r19,0(r2)
   895a8:	0005883a 	mov	r2,zero
   895ac:	00000406 	br	895c0 <alt_up_pixel_buffer_dma_draw+0xc4>
   895b0:	1905883a 	add	r2,r3,r4
   895b4:	14c00035 	stwio	r19,0(r2)
   895b8:	003ffb06 	br	895a8 <alt_up_pixel_buffer_dma_draw+0xac>
   895bc:	00bfffc4 	movi	r2,-1
   895c0:	dfc00417 	ldw	ra,16(sp)
   895c4:	dcc00317 	ldw	r19,12(sp)
   895c8:	dc800217 	ldw	r18,8(sp)
   895cc:	dc400117 	ldw	r17,4(sp)
   895d0:	dc000017 	ldw	r16,0(sp)
   895d4:	dec00504 	addi	sp,sp,20
   895d8:	f800283a 	ret

000895dc <alt_up_pixel_buffer_dma_check_swap_buffers_status>:
   895dc:	20800a17 	ldw	r2,40(r4)
   895e0:	10800337 	ldwio	r2,12(r2)
   895e4:	1080004c 	andi	r2,r2,1
   895e8:	f800283a 	ret

000895ec <alt_up_pixel_buffer_dma_change_back_buffer_address>:
   895ec:	20800a17 	ldw	r2,40(r4)
   895f0:	00c00104 	movi	r3,4
   895f4:	10c5883a 	add	r2,r2,r3
   895f8:	11400035 	stwio	r5,0(r2)
   895fc:	20800a17 	ldw	r2,40(r4)
   89600:	10c5883a 	add	r2,r2,r3
   89604:	10c00037 	ldwio	r3,0(r2)
   89608:	0005883a 	mov	r2,zero
   8960c:	20c00c15 	stw	r3,48(r4)
   89610:	f800283a 	ret

00089614 <alt_up_pixel_buffer_dma_open_dev>:
   89614:	01400274 	movhi	r5,9
   89618:	29699204 	addi	r5,r5,-22968
   8961c:	00897e41 	jmpi	897e4 <alt_find_dev>

00089620 <alt_busy_sleep>:
   89620:	defffe04 	addi	sp,sp,-8
   89624:	01417474 	movhi	r5,1489
   89628:	295d1744 	addi	r5,r5,29789
   8962c:	dc000015 	stw	r16,0(sp)
   89630:	dfc00115 	stw	ra,4(sp)
   89634:	2021883a 	mov	r16,r4
   89638:	008a1b80 	call	8a1b8 <__udivsi3>
   8963c:	10001126 	beq	r2,zero,89684 <alt_busy_sleep+0x64>
   89640:	0007883a 	mov	r3,zero
   89644:	01200034 	movhi	r4,32768
   89648:	213fffc4 	addi	r4,r4,-1
   8964c:	017e8bf4 	movhi	r5,64047
   89650:	2962e8c4 	addi	r5,r5,-29789
   89654:	00000406 	br	89668 <alt_busy_sleep+0x48>
   89658:	213fffc4 	addi	r4,r4,-1
   8965c:	203ffe1e 	bne	r4,zero,89658 <alt_busy_sleep+0x38>
   89660:	8161883a 	add	r16,r16,r5
   89664:	18c00044 	addi	r3,r3,1
   89668:	18bffb16 	blt	r3,r2,89658 <alt_busy_sleep+0x38>
   8966c:	8009883a 	mov	r4,r16
   89670:	01400584 	movi	r5,22
   89674:	008a1c80 	call	8a1c8 <__mulsi3>
   89678:	10bfffc4 	addi	r2,r2,-1
   8967c:	103ffe1e 	bne	r2,zero,89678 <alt_busy_sleep+0x58>
   89680:	00000506 	br	89698 <alt_busy_sleep+0x78>
   89684:	8009883a 	mov	r4,r16
   89688:	01400584 	movi	r5,22
   8968c:	008a1c80 	call	8a1c8 <__mulsi3>
   89690:	10bfffc4 	addi	r2,r2,-1
   89694:	00bffe16 	blt	zero,r2,89690 <alt_busy_sleep+0x70>
   89698:	0005883a 	mov	r2,zero
   8969c:	dfc00117 	ldw	ra,4(sp)
   896a0:	dc000017 	ldw	r16,0(sp)
   896a4:	dec00204 	addi	sp,sp,8
   896a8:	f800283a 	ret

000896ac <alt_get_errno>:
   896ac:	00800274 	movhi	r2,9
   896b0:	10a99504 	addi	r2,r2,-22956
   896b4:	10c00017 	ldw	r3,0(r2)
   896b8:	00800274 	movhi	r2,9
   896bc:	10aa8004 	addi	r2,r2,-22016
   896c0:	18000126 	beq	r3,zero,896c8 <alt_get_errno+0x1c>
   896c4:	1800683a 	jmp	r3
   896c8:	f800283a 	ret

000896cc <close>:
   896cc:	defffd04 	addi	sp,sp,-12
   896d0:	dc000015 	stw	r16,0(sp)
   896d4:	dfc00215 	stw	ra,8(sp)
   896d8:	dc400115 	stw	r17,4(sp)
   896dc:	01400304 	movi	r5,12
   896e0:	2021883a 	mov	r16,r4
   896e4:	20001216 	blt	r4,zero,89730 <close+0x64>
   896e8:	008a1c80 	call	8a1c8 <__mulsi3>
   896ec:	00c00274 	movhi	r3,9
   896f0:	18e92804 	addi	r3,r3,-23392
   896f4:	10c9883a 	add	r4,r2,r3
   896f8:	20000d26 	beq	r4,zero,89730 <close+0x64>
   896fc:	20800017 	ldw	r2,0(r4)
   89700:	10800417 	ldw	r2,16(r2)
   89704:	10000f26 	beq	r2,zero,89744 <close+0x78>
   89708:	103ee83a 	callr	r2
   8970c:	1023883a 	mov	r17,r2
   89710:	8009883a 	mov	r4,r16
   89714:	0089bf00 	call	89bf0 <alt_release_fd>
   89718:	0009883a 	mov	r4,zero
   8971c:	88000c0e 	bge	r17,zero,89750 <close+0x84>
   89720:	00896ac0 	call	896ac <alt_get_errno>
   89724:	0447c83a 	sub	r3,zero,r17
   89728:	013fffc4 	movi	r4,-1
   8972c:	00000306 	br	8973c <close+0x70>
   89730:	00896ac0 	call	896ac <alt_get_errno>
   89734:	013fffc4 	movi	r4,-1
   89738:	00c01444 	movi	r3,81
   8973c:	10c00015 	stw	r3,0(r2)
   89740:	00000306 	br	89750 <close+0x84>
   89744:	8009883a 	mov	r4,r16
   89748:	0089bf00 	call	89bf0 <alt_release_fd>
   8974c:	0009883a 	mov	r4,zero
   89750:	2005883a 	mov	r2,r4
   89754:	dfc00217 	ldw	ra,8(sp)
   89758:	dc400117 	ldw	r17,4(sp)
   8975c:	dc000017 	ldw	r16,0(sp)
   89760:	dec00304 	addi	sp,sp,12
   89764:	f800283a 	ret

00089768 <alt_dcache_flush_all>:
   89768:	f800283a 	ret

0008976c <alt_dev_null_write>:
   8976c:	3005883a 	mov	r2,r6
   89770:	f800283a 	ret

00089774 <alt_dev_llist_insert>:
   89774:	deffff04 	addi	sp,sp,-4
   89778:	dfc00015 	stw	ra,0(sp)
   8977c:	20000326 	beq	r4,zero,8978c <alt_dev_llist_insert+0x18>
   89780:	20800217 	ldw	r2,8(r4)
   89784:	000d883a 	mov	r6,zero
   89788:	10000c1e 	bne	r2,zero,897bc <alt_dev_llist_insert+0x48>
   8978c:	00800274 	movhi	r2,9
   89790:	10a99504 	addi	r2,r2,-22956
   89794:	10800017 	ldw	r2,0(r2)
   89798:	00c00274 	movhi	r3,9
   8979c:	18ea8004 	addi	r3,r3,-22016
   897a0:	10000226 	beq	r2,zero,897ac <alt_dev_llist_insert+0x38>
   897a4:	103ee83a 	callr	r2
   897a8:	1007883a 	mov	r3,r2
   897ac:	00800584 	movi	r2,22
   897b0:	01bffa84 	movi	r6,-22
   897b4:	18800015 	stw	r2,0(r3)
   897b8:	00000606 	br	897d4 <alt_dev_llist_insert+0x60>
   897bc:	28800017 	ldw	r2,0(r5)
   897c0:	21400115 	stw	r5,4(r4)
   897c4:	20800015 	stw	r2,0(r4)
   897c8:	28800017 	ldw	r2,0(r5)
   897cc:	29000015 	stw	r4,0(r5)
   897d0:	11000115 	stw	r4,4(r2)
   897d4:	3005883a 	mov	r2,r6
   897d8:	dfc00017 	ldw	ra,0(sp)
   897dc:	dec00104 	addi	sp,sp,4
   897e0:	f800283a 	ret

000897e4 <alt_find_dev>:
   897e4:	defffb04 	addi	sp,sp,-20
   897e8:	dcc00315 	stw	r19,12(sp)
   897ec:	dc800215 	stw	r18,8(sp)
   897f0:	dc400115 	stw	r17,4(sp)
   897f4:	dc000015 	stw	r16,0(sp)
   897f8:	dfc00415 	stw	ra,16(sp)
   897fc:	2c000017 	ldw	r16,0(r5)
   89800:	2823883a 	mov	r17,r5
   89804:	2027883a 	mov	r19,r4
   89808:	00883c00 	call	883c0 <strlen>
   8980c:	14800044 	addi	r18,r2,1
   89810:	00000406 	br	89824 <alt_find_dev+0x40>
   89814:	81000217 	ldw	r4,8(r16)
   89818:	0089e4c0 	call	89e4c <memcmp>
   8981c:	10000526 	beq	r2,zero,89834 <alt_find_dev+0x50>
   89820:	84000017 	ldw	r16,0(r16)
   89824:	980b883a 	mov	r5,r19
   89828:	900d883a 	mov	r6,r18
   8982c:	847ff91e 	bne	r16,r17,89814 <alt_find_dev+0x30>
   89830:	0021883a 	mov	r16,zero
   89834:	8005883a 	mov	r2,r16
   89838:	dfc00417 	ldw	ra,16(sp)
   8983c:	dcc00317 	ldw	r19,12(sp)
   89840:	dc800217 	ldw	r18,8(sp)
   89844:	dc400117 	ldw	r17,4(sp)
   89848:	dc000017 	ldw	r16,0(sp)
   8984c:	dec00504 	addi	sp,sp,20
   89850:	f800283a 	ret

00089854 <alt_icache_flush_all>:
   89854:	f800283a 	ret

00089858 <alt_ic_irq_enabled>:
   89858:	000530fa 	rdctl	r2,ienable
   8985c:	00c00044 	movi	r3,1
   89860:	1946983a 	sll	r3,r3,r5
   89864:	10c4703a 	and	r2,r2,r3
   89868:	1004c03a 	cmpne	r2,r2,zero
   8986c:	f800283a 	ret

00089870 <alt_ic_irq_enable>:
   89870:	000d303a 	rdctl	r6,status
   89874:	00bfff84 	movi	r2,-2
   89878:	3084703a 	and	r2,r6,r2
   8987c:	1001703a 	wrctl	status,r2
   89880:	01000274 	movhi	r4,9
   89884:	212a8404 	addi	r4,r4,-22000
   89888:	00c00044 	movi	r3,1
   8988c:	20800017 	ldw	r2,0(r4)
   89890:	1946983a 	sll	r3,r3,r5
   89894:	10c4b03a 	or	r2,r2,r3
   89898:	20800015 	stw	r2,0(r4)
   8989c:	20800017 	ldw	r2,0(r4)
   898a0:	100170fa 	wrctl	ienable,r2
   898a4:	3001703a 	wrctl	status,r6
   898a8:	0005883a 	mov	r2,zero
   898ac:	f800283a 	ret

000898b0 <alt_ic_irq_disable>:
   898b0:	000d303a 	rdctl	r6,status
   898b4:	00bfff84 	movi	r2,-2
   898b8:	3084703a 	and	r2,r6,r2
   898bc:	1001703a 	wrctl	status,r2
   898c0:	01000274 	movhi	r4,9
   898c4:	212a8404 	addi	r4,r4,-22000
   898c8:	00ffff84 	movi	r3,-2
   898cc:	20800017 	ldw	r2,0(r4)
   898d0:	1946183a 	rol	r3,r3,r5
   898d4:	10c4703a 	and	r2,r2,r3
   898d8:	20800015 	stw	r2,0(r4)
   898dc:	20800017 	ldw	r2,0(r4)
   898e0:	100170fa 	wrctl	ienable,r2
   898e4:	3001703a 	wrctl	status,r6
   898e8:	0005883a 	mov	r2,zero
   898ec:	f800283a 	ret

000898f0 <alt_ic_isr_register>:
   898f0:	00898f41 	jmpi	898f4 <alt_iic_isr_register>

000898f4 <alt_iic_isr_register>:
   898f4:	defffe04 	addi	sp,sp,-8
   898f8:	008007c4 	movi	r2,31
   898fc:	dfc00115 	stw	ra,4(sp)
   89900:	dc000015 	stw	r16,0(sp)
   89904:	00fffa84 	movi	r3,-22
   89908:	11401016 	blt	r2,r5,8994c <alt_iic_isr_register+0x58>
   8990c:	0021303a 	rdctl	r16,status
   89910:	00bfff84 	movi	r2,-2
   89914:	8084703a 	and	r2,r16,r2
   89918:	1001703a 	wrctl	status,r2
   8991c:	280490fa 	slli	r2,r5,3
   89920:	00c00274 	movhi	r3,9
   89924:	18ea8704 	addi	r3,r3,-21988
   89928:	10c5883a 	add	r2,r2,r3
   8992c:	11c00115 	stw	r7,4(r2)
   89930:	11800015 	stw	r6,0(r2)
   89934:	30000226 	beq	r6,zero,89940 <alt_iic_isr_register+0x4c>
   89938:	00898700 	call	89870 <alt_ic_irq_enable>
   8993c:	00000106 	br	89944 <alt_iic_isr_register+0x50>
   89940:	00898b00 	call	898b0 <alt_ic_irq_disable>
   89944:	1007883a 	mov	r3,r2
   89948:	8001703a 	wrctl	status,r16
   8994c:	1805883a 	mov	r2,r3
   89950:	dfc00117 	ldw	ra,4(sp)
   89954:	dc000017 	ldw	r16,0(sp)
   89958:	dec00204 	addi	sp,sp,8
   8995c:	f800283a 	ret

00089960 <alt_open_fd>:
   89960:	defffd04 	addi	sp,sp,-12
   89964:	dc400115 	stw	r17,4(sp)
   89968:	2023883a 	mov	r17,r4
   8996c:	2809883a 	mov	r4,r5
   89970:	300b883a 	mov	r5,r6
   89974:	380d883a 	mov	r6,r7
   89978:	dc000015 	stw	r16,0(sp)
   8997c:	dfc00215 	stw	ra,8(sp)
   89980:	0089a740 	call	89a74 <open>
   89984:	1021883a 	mov	r16,r2
   89988:	1009883a 	mov	r4,r2
   8998c:	01400304 	movi	r5,12
   89990:	10001016 	blt	r2,zero,899d4 <alt_open_fd+0x74>
   89994:	008a1c80 	call	8a1c8 <__mulsi3>
   89998:	00c00274 	movhi	r3,9
   8999c:	18e92804 	addi	r3,r3,-23392
   899a0:	10c5883a 	add	r2,r2,r3
   899a4:	11000017 	ldw	r4,0(r2)
   899a8:	10c00217 	ldw	r3,8(r2)
   899ac:	10800117 	ldw	r2,4(r2)
   899b0:	89000015 	stw	r4,0(r17)
   899b4:	8009883a 	mov	r4,r16
   899b8:	88c00215 	stw	r3,8(r17)
   899bc:	88800115 	stw	r2,4(r17)
   899c0:	dfc00217 	ldw	ra,8(sp)
   899c4:	dc400117 	ldw	r17,4(sp)
   899c8:	dc000017 	ldw	r16,0(sp)
   899cc:	dec00304 	addi	sp,sp,12
   899d0:	0089bf01 	jmpi	89bf0 <alt_release_fd>
   899d4:	dfc00217 	ldw	ra,8(sp)
   899d8:	dc400117 	ldw	r17,4(sp)
   899dc:	dc000017 	ldw	r16,0(sp)
   899e0:	dec00304 	addi	sp,sp,12
   899e4:	f800283a 	ret

000899e8 <alt_io_redirect>:
   899e8:	defffa04 	addi	sp,sp,-24
   899ec:	dcc00315 	stw	r19,12(sp)
   899f0:	dc400115 	stw	r17,4(sp)
   899f4:	dc000015 	stw	r16,0(sp)
   899f8:	04407fc4 	movi	r17,511
   899fc:	04000274 	movhi	r16,9
   89a00:	84292b04 	addi	r16,r16,-23380
   89a04:	04c00044 	movi	r19,1
   89a08:	dd000415 	stw	r20,16(sp)
   89a0c:	dc800215 	stw	r18,8(sp)
   89a10:	3029883a 	mov	r20,r6
   89a14:	2825883a 	mov	r18,r5
   89a18:	980d883a 	mov	r6,r19
   89a1c:	200b883a 	mov	r5,r4
   89a20:	880f883a 	mov	r7,r17
   89a24:	8009883a 	mov	r4,r16
   89a28:	dfc00515 	stw	ra,20(sp)
   89a2c:	00899600 	call	89960 <alt_open_fd>
   89a30:	900b883a 	mov	r5,r18
   89a34:	813ffd04 	addi	r4,r16,-12
   89a38:	880f883a 	mov	r7,r17
   89a3c:	000d883a 	mov	r6,zero
   89a40:	00899600 	call	89960 <alt_open_fd>
   89a44:	81000304 	addi	r4,r16,12
   89a48:	a00b883a 	mov	r5,r20
   89a4c:	980d883a 	mov	r6,r19
   89a50:	880f883a 	mov	r7,r17
   89a54:	dfc00517 	ldw	ra,20(sp)
   89a58:	dd000417 	ldw	r20,16(sp)
   89a5c:	dcc00317 	ldw	r19,12(sp)
   89a60:	dc800217 	ldw	r18,8(sp)
   89a64:	dc400117 	ldw	r17,4(sp)
   89a68:	dc000017 	ldw	r16,0(sp)
   89a6c:	dec00604 	addi	sp,sp,24
   89a70:	00899601 	jmpi	89960 <alt_open_fd>

00089a74 <open>:
   89a74:	defff904 	addi	sp,sp,-28
   89a78:	dd000415 	stw	r20,16(sp)
   89a7c:	2829883a 	mov	r20,r5
   89a80:	01400274 	movhi	r5,9
   89a84:	29699204 	addi	r5,r5,-22968
   89a88:	dd400515 	stw	r21,20(sp)
   89a8c:	dcc00315 	stw	r19,12(sp)
   89a90:	dc000015 	stw	r16,0(sp)
   89a94:	dfc00615 	stw	ra,24(sp)
   89a98:	dc800215 	stw	r18,8(sp)
   89a9c:	dc400115 	stw	r17,4(sp)
   89aa0:	302b883a 	mov	r21,r6
   89aa4:	2027883a 	mov	r19,r4
   89aa8:	00897e40 	call	897e4 <alt_find_dev>
   89aac:	1021883a 	mov	r16,r2
   89ab0:	10000226 	beq	r2,zero,89abc <open+0x48>
   89ab4:	0025883a 	mov	r18,zero
   89ab8:	00000a06 	br	89ae4 <open+0x70>
   89abc:	9809883a 	mov	r4,r19
   89ac0:	0089d340 	call	89d34 <alt_find_file>
   89ac4:	1021883a 	mov	r16,r2
   89ac8:	1000051e 	bne	r2,zero,89ae0 <open+0x6c>
   89acc:	047fffc4 	movi	r17,-1
   89ad0:	043ffb44 	movi	r16,-19
   89ad4:	00002b06 	br	89b84 <open+0x110>
   89ad8:	043ffcc4 	movi	r16,-13
   89adc:	00002906 	br	89b84 <open+0x110>
   89ae0:	04800044 	movi	r18,1
   89ae4:	8009883a 	mov	r4,r16
   89ae8:	0089dd00 	call	89dd0 <alt_get_fd>
   89aec:	1023883a 	mov	r17,r2
   89af0:	10003316 	blt	r2,zero,89bc0 <open+0x14c>
   89af4:	1009883a 	mov	r4,r2
   89af8:	01400304 	movi	r5,12
   89afc:	008a1c80 	call	8a1c8 <__mulsi3>
   89b00:	01400274 	movhi	r5,9
   89b04:	29692804 	addi	r5,r5,-23392
   89b08:	1149883a 	add	r4,r2,r5
   89b0c:	00900034 	movhi	r2,16384
   89b10:	10bfffc4 	addi	r2,r2,-1
   89b14:	a086703a 	and	r3,r20,r2
   89b18:	9004c03a 	cmpne	r2,r18,zero
   89b1c:	20c00215 	stw	r3,8(r4)
   89b20:	1000101e 	bne	r2,zero,89b64 <open+0xf0>
   89b24:	00800274 	movhi	r2,9
   89b28:	10a99404 	addi	r2,r2,-22960
   89b2c:	21800017 	ldw	r6,0(r4)
   89b30:	11c00017 	ldw	r7,0(r2)
   89b34:	18900034 	orhi	r2,r3,16384
   89b38:	20800215 	stw	r2,8(r4)
   89b3c:	2807883a 	mov	r3,r5
   89b40:	000b883a 	mov	r5,zero
   89b44:	18800017 	ldw	r2,0(r3)
   89b48:	29400044 	addi	r5,r5,1
   89b4c:	1180031e 	bne	r2,r6,89b5c <open+0xe8>
   89b50:	18800217 	ldw	r2,8(r3)
   89b54:	1000010e 	bge	r2,zero,89b5c <open+0xe8>
   89b58:	193fdf1e 	bne	r3,r4,89ad8 <open+0x64>
   89b5c:	18c00304 	addi	r3,r3,12
   89b60:	397ff82e 	bgeu	r7,r5,89b44 <open+0xd0>
   89b64:	80800317 	ldw	r2,12(r16)
   89b68:	10001726 	beq	r2,zero,89bc8 <open+0x154>
   89b6c:	980b883a 	mov	r5,r19
   89b70:	a00d883a 	mov	r6,r20
   89b74:	a80f883a 	mov	r7,r21
   89b78:	103ee83a 	callr	r2
   89b7c:	1021883a 	mov	r16,r2
   89b80:	1000110e 	bge	r2,zero,89bc8 <open+0x154>
   89b84:	8809883a 	mov	r4,r17
   89b88:	0089bf00 	call	89bf0 <alt_release_fd>
   89b8c:	00800274 	movhi	r2,9
   89b90:	10a99504 	addi	r2,r2,-22956
   89b94:	10800017 	ldw	r2,0(r2)
   89b98:	1000031e 	bne	r2,zero,89ba8 <open+0x134>
   89b9c:	00c00274 	movhi	r3,9
   89ba0:	18ea8004 	addi	r3,r3,-22016
   89ba4:	00000206 	br	89bb0 <open+0x13c>
   89ba8:	103ee83a 	callr	r2
   89bac:	1007883a 	mov	r3,r2
   89bb0:	0405c83a 	sub	r2,zero,r16
   89bb4:	047fffc4 	movi	r17,-1
   89bb8:	18800015 	stw	r2,0(r3)
   89bbc:	00000206 	br	89bc8 <open+0x154>
   89bc0:	1021883a 	mov	r16,r2
   89bc4:	003fef06 	br	89b84 <open+0x110>
   89bc8:	8805883a 	mov	r2,r17
   89bcc:	dfc00617 	ldw	ra,24(sp)
   89bd0:	dd400517 	ldw	r21,20(sp)
   89bd4:	dd000417 	ldw	r20,16(sp)
   89bd8:	dcc00317 	ldw	r19,12(sp)
   89bdc:	dc800217 	ldw	r18,8(sp)
   89be0:	dc400117 	ldw	r17,4(sp)
   89be4:	dc000017 	ldw	r16,0(sp)
   89be8:	dec00704 	addi	sp,sp,28
   89bec:	f800283a 	ret

00089bf0 <alt_release_fd>:
   89bf0:	defffd04 	addi	sp,sp,-12
   89bf4:	00800084 	movi	r2,2
   89bf8:	dc400115 	stw	r17,4(sp)
   89bfc:	dc000015 	stw	r16,0(sp)
   89c00:	dfc00215 	stw	ra,8(sp)
   89c04:	01400304 	movi	r5,12
   89c08:	04400274 	movhi	r17,9
   89c0c:	8c692804 	addi	r17,r17,-23392
   89c10:	2021883a 	mov	r16,r4
   89c14:	1100080e 	bge	r2,r4,89c38 <alt_release_fd+0x48>
   89c18:	008a1c80 	call	8a1c8 <__mulsi3>
   89c1c:	1445883a 	add	r2,r2,r17
   89c20:	8009883a 	mov	r4,r16
   89c24:	01400304 	movi	r5,12
   89c28:	10000215 	stw	zero,8(r2)
   89c2c:	008a1c80 	call	8a1c8 <__mulsi3>
   89c30:	1445883a 	add	r2,r2,r17
   89c34:	10000015 	stw	zero,0(r2)
   89c38:	dfc00217 	ldw	ra,8(sp)
   89c3c:	dc400117 	ldw	r17,4(sp)
   89c40:	dc000017 	ldw	r16,0(sp)
   89c44:	dec00304 	addi	sp,sp,12
   89c48:	f800283a 	ret

00089c4c <alt_alarm_stop>:
   89c4c:	000b303a 	rdctl	r5,status
   89c50:	00bfff84 	movi	r2,-2
   89c54:	2884703a 	and	r2,r5,r2
   89c58:	1001703a 	wrctl	status,r2
   89c5c:	20c00017 	ldw	r3,0(r4)
   89c60:	20800117 	ldw	r2,4(r4)
   89c64:	18800115 	stw	r2,4(r3)
   89c68:	20800117 	ldw	r2,4(r4)
   89c6c:	21000115 	stw	r4,4(r4)
   89c70:	10c00015 	stw	r3,0(r2)
   89c74:	21000015 	stw	r4,0(r4)
   89c78:	2801703a 	wrctl	status,r5
   89c7c:	f800283a 	ret

00089c80 <alt_tick>:
   89c80:	defffd04 	addi	sp,sp,-12
   89c84:	d0a0fe17 	ldw	r2,-31752(gp)
   89c88:	dc000015 	stw	r16,0(sp)
   89c8c:	d4200f17 	ldw	r16,-32708(gp)
   89c90:	10800044 	addi	r2,r2,1
   89c94:	dfc00215 	stw	ra,8(sp)
   89c98:	dc400115 	stw	r17,4(sp)
   89c9c:	d0a0fe15 	stw	r2,-31752(gp)
   89ca0:	00001b06 	br	89d10 <alt_tick+0x90>
   89ca4:	80800403 	ldbu	r2,16(r16)
   89ca8:	84400017 	ldw	r17,0(r16)
   89cac:	10000326 	beq	r2,zero,89cbc <alt_tick+0x3c>
   89cb0:	d0a0fe17 	ldw	r2,-31752(gp)
   89cb4:	1000011e 	bne	r2,zero,89cbc <alt_tick+0x3c>
   89cb8:	80000405 	stb	zero,16(r16)
   89cbc:	d0e0fe17 	ldw	r3,-31752(gp)
   89cc0:	80800217 	ldw	r2,8(r16)
   89cc4:	18801136 	bltu	r3,r2,89d0c <alt_tick+0x8c>
   89cc8:	80800403 	ldbu	r2,16(r16)
   89ccc:	10000f1e 	bne	r2,zero,89d0c <alt_tick+0x8c>
   89cd0:	81000517 	ldw	r4,20(r16)
   89cd4:	80800317 	ldw	r2,12(r16)
   89cd8:	103ee83a 	callr	r2
   89cdc:	1009883a 	mov	r4,r2
   89ce0:	1000031e 	bne	r2,zero,89cf0 <alt_tick+0x70>
   89ce4:	8009883a 	mov	r4,r16
   89ce8:	0089c4c0 	call	89c4c <alt_alarm_stop>
   89cec:	00000706 	br	89d0c <alt_tick+0x8c>
   89cf0:	80800217 	ldw	r2,8(r16)
   89cf4:	d0e0fe17 	ldw	r3,-31752(gp)
   89cf8:	1105883a 	add	r2,r2,r4
   89cfc:	80800215 	stw	r2,8(r16)
   89d00:	10c0022e 	bgeu	r2,r3,89d0c <alt_tick+0x8c>
   89d04:	00800044 	movi	r2,1
   89d08:	80800405 	stb	r2,16(r16)
   89d0c:	8821883a 	mov	r16,r17
   89d10:	d0a00f04 	addi	r2,gp,-32708
   89d14:	80bfe31e 	bne	r16,r2,89ca4 <alt_tick+0x24>
   89d18:	dfc00217 	ldw	ra,8(sp)
   89d1c:	dc400117 	ldw	r17,4(sp)
   89d20:	dc000017 	ldw	r16,0(sp)
   89d24:	dec00304 	addi	sp,sp,12
   89d28:	f800283a 	ret

00089d2c <altera_nios2_qsys_irq_init>:
   89d2c:	000170fa 	wrctl	ienable,zero
   89d30:	f800283a 	ret

00089d34 <alt_find_file>:
   89d34:	defffc04 	addi	sp,sp,-16
   89d38:	00800274 	movhi	r2,9
   89d3c:	10a99004 	addi	r2,r2,-22976
   89d40:	dc400115 	stw	r17,4(sp)
   89d44:	14400017 	ldw	r17,0(r2)
   89d48:	dc800215 	stw	r18,8(sp)
   89d4c:	2025883a 	mov	r18,r4
   89d50:	dfc00315 	stw	ra,12(sp)
   89d54:	dc000015 	stw	r16,0(sp)
   89d58:	00001206 	br	89da4 <alt_find_file+0x70>
   89d5c:	8c000217 	ldw	r16,8(r17)
   89d60:	8009883a 	mov	r4,r16
   89d64:	00883c00 	call	883c0 <strlen>
   89d68:	100d883a 	mov	r6,r2
   89d6c:	8085883a 	add	r2,r16,r2
   89d70:	10bfffc7 	ldb	r2,-1(r2)
   89d74:	00c00bc4 	movi	r3,47
   89d78:	8009883a 	mov	r4,r16
   89d7c:	900b883a 	mov	r5,r18
   89d80:	10c0011e 	bne	r2,r3,89d88 <alt_find_file+0x54>
   89d84:	31bfffc4 	addi	r6,r6,-1
   89d88:	9185883a 	add	r2,r18,r6
   89d8c:	10800007 	ldb	r2,0(r2)
   89d90:	10c00126 	beq	r2,r3,89d98 <alt_find_file+0x64>
   89d94:	1000021e 	bne	r2,zero,89da0 <alt_find_file+0x6c>
   89d98:	0089e4c0 	call	89e4c <memcmp>
   89d9c:	10000526 	beq	r2,zero,89db4 <alt_find_file+0x80>
   89da0:	8c400017 	ldw	r17,0(r17)
   89da4:	00800274 	movhi	r2,9
   89da8:	10a99004 	addi	r2,r2,-22976
   89dac:	88bfeb1e 	bne	r17,r2,89d5c <alt_find_file+0x28>
   89db0:	0023883a 	mov	r17,zero
   89db4:	8805883a 	mov	r2,r17
   89db8:	dfc00317 	ldw	ra,12(sp)
   89dbc:	dc800217 	ldw	r18,8(sp)
   89dc0:	dc400117 	ldw	r17,4(sp)
   89dc4:	dc000017 	ldw	r16,0(sp)
   89dc8:	dec00404 	addi	sp,sp,16
   89dcc:	f800283a 	ret

00089dd0 <alt_get_fd>:
   89dd0:	01400274 	movhi	r5,9
   89dd4:	29692804 	addi	r5,r5,-23392
   89dd8:	0007883a 	mov	r3,zero
   89ddc:	280d883a 	mov	r6,r5
   89de0:	28800017 	ldw	r2,0(r5)
   89de4:	29400304 	addi	r5,r5,12
   89de8:	10000a1e 	bne	r2,zero,89e14 <alt_get_fd+0x44>
   89dec:	01400274 	movhi	r5,9
   89df0:	29699404 	addi	r5,r5,-22960
   89df4:	28800017 	ldw	r2,0(r5)
   89df8:	31000015 	stw	r4,0(r6)
   89dfc:	10c00216 	blt	r2,r3,89e08 <alt_get_fd+0x38>
   89e00:	1805883a 	mov	r2,r3
   89e04:	f800283a 	ret
   89e08:	1805883a 	mov	r2,r3
   89e0c:	28c00015 	stw	r3,0(r5)
   89e10:	f800283a 	ret
   89e14:	18c00044 	addi	r3,r3,1
   89e18:	00800804 	movi	r2,32
   89e1c:	31800304 	addi	r6,r6,12
   89e20:	18bfef1e 	bne	r3,r2,89de0 <alt_get_fd+0x10>
   89e24:	00bffa04 	movi	r2,-24
   89e28:	f800283a 	ret

00089e2c <exit>:
   89e2c:	defffe04 	addi	sp,sp,-8
   89e30:	dc400015 	stw	r17,0(sp)
   89e34:	000b883a 	mov	r5,zero
   89e38:	2023883a 	mov	r17,r4
   89e3c:	dfc00115 	stw	ra,4(sp)
   89e40:	0089ec00 	call	89ec0 <__call_exitprocs>
   89e44:	8809883a 	mov	r4,r17
   89e48:	008a2000 	call	8a200 <_exit>

00089e4c <memcmp>:
   89e4c:	31ffffc4 	addi	r7,r6,-1
   89e50:	3000061e 	bne	r6,zero,89e6c <memcmp+0x20>
   89e54:	00000a06 	br	89e80 <memcmp+0x34>
   89e58:	39ffffc4 	addi	r7,r7,-1
   89e5c:	00bfffc4 	movi	r2,-1
   89e60:	21000044 	addi	r4,r4,1
   89e64:	29400044 	addi	r5,r5,1
   89e68:	38800526 	beq	r7,r2,89e80 <memcmp+0x34>
   89e6c:	20c00003 	ldbu	r3,0(r4)
   89e70:	28800003 	ldbu	r2,0(r5)
   89e74:	18bff826 	beq	r3,r2,89e58 <memcmp+0xc>
   89e78:	1885c83a 	sub	r2,r3,r2
   89e7c:	f800283a 	ret
   89e80:	0005883a 	mov	r2,zero
   89e84:	f800283a 	ret

00089e88 <strcmp>:
   89e88:	20c00007 	ldb	r3,0(r4)
   89e8c:	1800051e 	bne	r3,zero,89ea4 <strcmp+0x1c>
   89e90:	00000606 	br	89eac <strcmp+0x24>
   89e94:	21000044 	addi	r4,r4,1
   89e98:	20c00007 	ldb	r3,0(r4)
   89e9c:	29400044 	addi	r5,r5,1
   89ea0:	18000226 	beq	r3,zero,89eac <strcmp+0x24>
   89ea4:	28800007 	ldb	r2,0(r5)
   89ea8:	18bffa26 	beq	r3,r2,89e94 <strcmp+0xc>
   89eac:	20c00003 	ldbu	r3,0(r4)
   89eb0:	28800003 	ldbu	r2,0(r5)
   89eb4:	1885c83a 	sub	r2,r3,r2
   89eb8:	f800283a 	ret

00089ebc <register_fini>:
   89ebc:	f800283a 	ret

00089ec0 <__call_exitprocs>:
   89ec0:	defff304 	addi	sp,sp,-52
   89ec4:	00800274 	movhi	r2,9
   89ec8:	10a98f04 	addi	r2,r2,-22980
   89ecc:	df000b15 	stw	fp,44(sp)
   89ed0:	17000017 	ldw	fp,0(r2)
   89ed4:	00800034 	movhi	r2,0
   89ed8:	10800004 	addi	r2,r2,0
   89edc:	1005003a 	cmpeq	r2,r2,zero
   89ee0:	d8800215 	stw	r2,8(sp)
   89ee4:	e0800c04 	addi	r2,fp,48
   89ee8:	dd800915 	stw	r22,36(sp)
   89eec:	dd400815 	stw	r21,32(sp)
   89ef0:	dfc00c15 	stw	ra,48(sp)
   89ef4:	ddc00a15 	stw	r23,40(sp)
   89ef8:	dd000715 	stw	r20,28(sp)
   89efc:	dcc00615 	stw	r19,24(sp)
   89f00:	dc800515 	stw	r18,20(sp)
   89f04:	dc400415 	stw	r17,16(sp)
   89f08:	dc000315 	stw	r16,12(sp)
   89f0c:	282d883a 	mov	r22,r5
   89f10:	d9000115 	stw	r4,4(sp)
   89f14:	d8800015 	stw	r2,0(sp)
   89f18:	282b003a 	cmpeq	r21,r5,zero
   89f1c:	e4400c17 	ldw	r17,48(fp)
   89f20:	88001226 	beq	r17,zero,89f6c <__call_exitprocs+0xac>
   89f24:	ddc00017 	ldw	r23,0(sp)
   89f28:	88800117 	ldw	r2,4(r17)
   89f2c:	8c802217 	ldw	r18,136(r17)
   89f30:	143fffc4 	addi	r16,r2,-1
   89f34:	80000b16 	blt	r16,zero,89f64 <__call_exitprocs+0xa4>
   89f38:	9027003a 	cmpeq	r19,r18,zero
   89f3c:	a800171e 	bne	r21,zero,89f9c <__call_exitprocs+0xdc>
   89f40:	9800051e 	bne	r19,zero,89f58 <__call_exitprocs+0x98>
   89f44:	8409883a 	add	r4,r16,r16
   89f48:	2105883a 	add	r2,r4,r4
   89f4c:	1485883a 	add	r2,r2,r18
   89f50:	10c02017 	ldw	r3,128(r2)
   89f54:	b0c01226 	beq	r22,r3,89fa0 <__call_exitprocs+0xe0>
   89f58:	843fffc4 	addi	r16,r16,-1
   89f5c:	00bfffc4 	movi	r2,-1
   89f60:	80bff61e 	bne	r16,r2,89f3c <__call_exitprocs+0x7c>
   89f64:	d8800217 	ldw	r2,8(sp)
   89f68:	10003226 	beq	r2,zero,8a034 <__call_exitprocs+0x174>
   89f6c:	dfc00c17 	ldw	ra,48(sp)
   89f70:	df000b17 	ldw	fp,44(sp)
   89f74:	ddc00a17 	ldw	r23,40(sp)
   89f78:	dd800917 	ldw	r22,36(sp)
   89f7c:	dd400817 	ldw	r21,32(sp)
   89f80:	dd000717 	ldw	r20,28(sp)
   89f84:	dcc00617 	ldw	r19,24(sp)
   89f88:	dc800517 	ldw	r18,20(sp)
   89f8c:	dc400417 	ldw	r17,16(sp)
   89f90:	dc000317 	ldw	r16,12(sp)
   89f94:	dec00d04 	addi	sp,sp,52
   89f98:	f800283a 	ret
   89f9c:	8409883a 	add	r4,r16,r16
   89fa0:	88c00117 	ldw	r3,4(r17)
   89fa4:	2105883a 	add	r2,r4,r4
   89fa8:	1445883a 	add	r2,r2,r17
   89fac:	18ffffc4 	addi	r3,r3,-1
   89fb0:	11800217 	ldw	r6,8(r2)
   89fb4:	1c001826 	beq	r3,r16,8a018 <__call_exitprocs+0x158>
   89fb8:	10000215 	stw	zero,8(r2)
   89fbc:	303fe626 	beq	r6,zero,89f58 <__call_exitprocs+0x98>
   89fc0:	8d000117 	ldw	r20,4(r17)
   89fc4:	9800121e 	bne	r19,zero,8a010 <__call_exitprocs+0x150>
   89fc8:	00c00044 	movi	r3,1
   89fcc:	1c06983a 	sll	r3,r3,r16
   89fd0:	90804017 	ldw	r2,256(r18)
   89fd4:	1884703a 	and	r2,r3,r2
   89fd8:	10000d26 	beq	r2,zero,8a010 <__call_exitprocs+0x150>
   89fdc:	90804117 	ldw	r2,260(r18)
   89fe0:	1884703a 	and	r2,r3,r2
   89fe4:	10000e1e 	bne	r2,zero,8a020 <__call_exitprocs+0x160>
   89fe8:	2105883a 	add	r2,r4,r4
   89fec:	1485883a 	add	r2,r2,r18
   89ff0:	11400017 	ldw	r5,0(r2)
   89ff4:	d9000117 	ldw	r4,4(sp)
   89ff8:	303ee83a 	callr	r6
   89ffc:	88800117 	ldw	r2,4(r17)
   8a000:	a0bfc61e 	bne	r20,r2,89f1c <__call_exitprocs+0x5c>
   8a004:	b8800017 	ldw	r2,0(r23)
   8a008:	147fd326 	beq	r2,r17,89f58 <__call_exitprocs+0x98>
   8a00c:	003fc306 	br	89f1c <__call_exitprocs+0x5c>
   8a010:	303ee83a 	callr	r6
   8a014:	003ff906 	br	89ffc <__call_exitprocs+0x13c>
   8a018:	8c000115 	stw	r16,4(r17)
   8a01c:	003fe706 	br	89fbc <__call_exitprocs+0xfc>
   8a020:	2105883a 	add	r2,r4,r4
   8a024:	1485883a 	add	r2,r2,r18
   8a028:	11000017 	ldw	r4,0(r2)
   8a02c:	303ee83a 	callr	r6
   8a030:	003ff206 	br	89ffc <__call_exitprocs+0x13c>
   8a034:	88800117 	ldw	r2,4(r17)
   8a038:	10000b1e 	bne	r2,zero,8a068 <__call_exitprocs+0x1a8>
   8a03c:	89000017 	ldw	r4,0(r17)
   8a040:	20000a26 	beq	r4,zero,8a06c <__call_exitprocs+0x1ac>
   8a044:	b9000015 	stw	r4,0(r23)
   8a048:	90000226 	beq	r18,zero,8a054 <__call_exitprocs+0x194>
   8a04c:	9009883a 	mov	r4,r18
   8a050:	00000000 	call	0 <__alt_mem_onchip_mem-0x88000>
   8a054:	8809883a 	mov	r4,r17
   8a058:	00000000 	call	0 <__alt_mem_onchip_mem-0x88000>
   8a05c:	bc400017 	ldw	r17,0(r23)
   8a060:	883fb11e 	bne	r17,zero,89f28 <__call_exitprocs+0x68>
   8a064:	003fc106 	br	89f6c <__call_exitprocs+0xac>
   8a068:	89000017 	ldw	r4,0(r17)
   8a06c:	882f883a 	mov	r23,r17
   8a070:	2023883a 	mov	r17,r4
   8a074:	883fac1e 	bne	r17,zero,89f28 <__call_exitprocs+0x68>
   8a078:	003fbc06 	br	89f6c <__call_exitprocs+0xac>

0008a07c <udivmodsi4>:
   8a07c:	29001b2e 	bgeu	r5,r4,8a0ec <udivmodsi4+0x70>
   8a080:	28001a16 	blt	r5,zero,8a0ec <udivmodsi4+0x70>
   8a084:	00800044 	movi	r2,1
   8a088:	0007883a 	mov	r3,zero
   8a08c:	01c007c4 	movi	r7,31
   8a090:	00000306 	br	8a0a0 <udivmodsi4+0x24>
   8a094:	19c01326 	beq	r3,r7,8a0e4 <udivmodsi4+0x68>
   8a098:	18c00044 	addi	r3,r3,1
   8a09c:	28000416 	blt	r5,zero,8a0b0 <udivmodsi4+0x34>
   8a0a0:	294b883a 	add	r5,r5,r5
   8a0a4:	1085883a 	add	r2,r2,r2
   8a0a8:	293ffa36 	bltu	r5,r4,8a094 <udivmodsi4+0x18>
   8a0ac:	10000d26 	beq	r2,zero,8a0e4 <udivmodsi4+0x68>
   8a0b0:	0007883a 	mov	r3,zero
   8a0b4:	21400236 	bltu	r4,r5,8a0c0 <udivmodsi4+0x44>
   8a0b8:	2149c83a 	sub	r4,r4,r5
   8a0bc:	1886b03a 	or	r3,r3,r2
   8a0c0:	1004d07a 	srli	r2,r2,1
   8a0c4:	280ad07a 	srli	r5,r5,1
   8a0c8:	103ffa1e 	bne	r2,zero,8a0b4 <udivmodsi4+0x38>
   8a0cc:	30000226 	beq	r6,zero,8a0d8 <udivmodsi4+0x5c>
   8a0d0:	2005883a 	mov	r2,r4
   8a0d4:	f800283a 	ret
   8a0d8:	1809883a 	mov	r4,r3
   8a0dc:	2005883a 	mov	r2,r4
   8a0e0:	f800283a 	ret
   8a0e4:	0007883a 	mov	r3,zero
   8a0e8:	003ff806 	br	8a0cc <udivmodsi4+0x50>
   8a0ec:	00800044 	movi	r2,1
   8a0f0:	0007883a 	mov	r3,zero
   8a0f4:	003fef06 	br	8a0b4 <udivmodsi4+0x38>

0008a0f8 <__divsi3>:
   8a0f8:	defffe04 	addi	sp,sp,-8
   8a0fc:	dc000015 	stw	r16,0(sp)
   8a100:	dfc00115 	stw	ra,4(sp)
   8a104:	0021883a 	mov	r16,zero
   8a108:	20000c16 	blt	r4,zero,8a13c <__divsi3+0x44>
   8a10c:	000d883a 	mov	r6,zero
   8a110:	28000e16 	blt	r5,zero,8a14c <__divsi3+0x54>
   8a114:	008a07c0 	call	8a07c <udivmodsi4>
   8a118:	1007883a 	mov	r3,r2
   8a11c:	8005003a 	cmpeq	r2,r16,zero
   8a120:	1000011e 	bne	r2,zero,8a128 <__divsi3+0x30>
   8a124:	00c7c83a 	sub	r3,zero,r3
   8a128:	1805883a 	mov	r2,r3
   8a12c:	dfc00117 	ldw	ra,4(sp)
   8a130:	dc000017 	ldw	r16,0(sp)
   8a134:	dec00204 	addi	sp,sp,8
   8a138:	f800283a 	ret
   8a13c:	0109c83a 	sub	r4,zero,r4
   8a140:	04000044 	movi	r16,1
   8a144:	000d883a 	mov	r6,zero
   8a148:	283ff20e 	bge	r5,zero,8a114 <__divsi3+0x1c>
   8a14c:	014bc83a 	sub	r5,zero,r5
   8a150:	8021003a 	cmpeq	r16,r16,zero
   8a154:	003fef06 	br	8a114 <__divsi3+0x1c>

0008a158 <__modsi3>:
   8a158:	deffff04 	addi	sp,sp,-4
   8a15c:	dfc00015 	stw	ra,0(sp)
   8a160:	01800044 	movi	r6,1
   8a164:	2807883a 	mov	r3,r5
   8a168:	20000416 	blt	r4,zero,8a17c <__modsi3+0x24>
   8a16c:	28000c16 	blt	r5,zero,8a1a0 <__modsi3+0x48>
   8a170:	dfc00017 	ldw	ra,0(sp)
   8a174:	dec00104 	addi	sp,sp,4
   8a178:	008a07c1 	jmpi	8a07c <udivmodsi4>
   8a17c:	0109c83a 	sub	r4,zero,r4
   8a180:	28000b16 	blt	r5,zero,8a1b0 <__modsi3+0x58>
   8a184:	180b883a 	mov	r5,r3
   8a188:	01800044 	movi	r6,1
   8a18c:	008a07c0 	call	8a07c <udivmodsi4>
   8a190:	0085c83a 	sub	r2,zero,r2
   8a194:	dfc00017 	ldw	ra,0(sp)
   8a198:	dec00104 	addi	sp,sp,4
   8a19c:	f800283a 	ret
   8a1a0:	014bc83a 	sub	r5,zero,r5
   8a1a4:	dfc00017 	ldw	ra,0(sp)
   8a1a8:	dec00104 	addi	sp,sp,4
   8a1ac:	008a07c1 	jmpi	8a07c <udivmodsi4>
   8a1b0:	0147c83a 	sub	r3,zero,r5
   8a1b4:	003ff306 	br	8a184 <__modsi3+0x2c>

0008a1b8 <__udivsi3>:
   8a1b8:	000d883a 	mov	r6,zero
   8a1bc:	008a07c1 	jmpi	8a07c <udivmodsi4>

0008a1c0 <__umodsi3>:
   8a1c0:	01800044 	movi	r6,1
   8a1c4:	008a07c1 	jmpi	8a07c <udivmodsi4>

0008a1c8 <__mulsi3>:
   8a1c8:	20000a26 	beq	r4,zero,8a1f4 <__mulsi3+0x2c>
   8a1cc:	0007883a 	mov	r3,zero
   8a1d0:	2080004c 	andi	r2,r4,1
   8a1d4:	1005003a 	cmpeq	r2,r2,zero
   8a1d8:	2008d07a 	srli	r4,r4,1
   8a1dc:	1000011e 	bne	r2,zero,8a1e4 <__mulsi3+0x1c>
   8a1e0:	1947883a 	add	r3,r3,r5
   8a1e4:	294b883a 	add	r5,r5,r5
   8a1e8:	203ff91e 	bne	r4,zero,8a1d0 <__mulsi3+0x8>
   8a1ec:	1805883a 	mov	r2,r3
   8a1f0:	f800283a 	ret
   8a1f4:	0007883a 	mov	r3,zero
   8a1f8:	1805883a 	mov	r2,r3
   8a1fc:	f800283a 	ret

0008a200 <_exit>:
   8a200:	20000226 	beq	r4,zero,8a20c <_exit+0xc>
   8a204:	002af070 	cmpltui	zero,zero,43969
   8a208:	00000106 	br	8a210 <_exit+0x10>
   8a20c:	002af0b0 	cmpltui	zero,zero,43970
   8a210:	003fff06 	br	8a210 <_exit+0x10>
   8a214:	00089ebc 	xorhi	zero,zero,8826
